

Microchip Technology PIC LITE Macro Assembler V1.38 build -256452561 
                                                                                               Fri Sep  2 01:25:32 2016

Microchip Technology Omniscient Code Generator v1.38 (Free mode) build 201607010351
     1                           	processor	16F1937
     2                           	opt	pw 120
     3                           	opt	lm
     4                           	psect	stringtext,global,class=STRCODE,delta=2
     5                           	psect	cinit,global,class=CODE,merge=1,delta=2
     6                           	psect	cstackCOMMON,global,class=COMMON,space=1,delta=1
     7                           	psect	cstackBANK0,global,class=BANK0,space=1,delta=1
     8                           	psect	maintext,global,class=CODE,merge=1,split=1,delta=2
     9                           	psect	text1,local,class=CODE,merge=1,delta=2
    10                           	psect	text2,local,class=CODE,merge=1,delta=2
    11                           	psect	text3,local,class=CODE,merge=1,delta=2
    12                           	psect	text4,local,class=CODE,merge=1,delta=2
    13                           	psect	text5,local,class=CODE,merge=1,delta=2
    14                           	psect	text6,local,class=CODE,merge=1,delta=2
    15                           	psect	text7,local,class=CODE,merge=1,delta=2
    16                           	psect	text8,local,class=CODE,merge=1,delta=2
    17                           	psect	text9,local,class=CODE,merge=1,delta=2
    18                           	psect	text10,local,class=CODE,merge=1,delta=2
    19                           	psect	text11,local,class=CODE,merge=1,delta=2
    20                           	psect	text12,local,class=CODE,merge=1,delta=2
    21                           	psect	text13,local,class=CODE,merge=1,delta=2
    22                           	psect	text14,local,class=CODE,merge=1,delta=2
    23                           	psect	text15,local,class=CODE,merge=1,delta=2
    24                           	psect	text16,local,class=CODE,merge=1,delta=2
    25                           	psect	text17,local,class=CODE,merge=1,delta=2
    26                           	psect	text18,local,class=CODE,merge=1,delta=2
    27                           	psect	text19,local,class=CODE,merge=1,delta=2
    28                           	psect	text20,local,class=CODE,merge=1,delta=2
    29                           	psect	text21,local,class=CODE,merge=1,delta=2
    30                           	psect	text22,local,class=CODE,merge=1,delta=2
    31                           	psect	text23,local,class=CODE,merge=1,delta=2
    32                           	psect	text24,local,class=CODE,merge=1,delta=2
    33                           	dabs	1,0x7E,2
    34  0000                     	;# 
    35  0001                     	;# 
    36  0002                     	;# 
    37  0003                     	;# 
    38  0004                     	;# 
    39  0005                     	;# 
    40  0006                     	;# 
    41  0007                     	;# 
    42  0008                     	;# 
    43  0009                     	;# 
    44  000A                     	;# 
    45  000B                     	;# 
    46  000C                     	;# 
    47  000D                     	;# 
    48  000E                     	;# 
    49  000F                     	;# 
    50  0010                     	;# 
    51  0011                     	;# 
    52  0012                     	;# 
    53  0013                     	;# 
    54  0015                     	;# 
    55  0016                     	;# 
    56  0016                     	;# 
    57  0017                     	;# 
    58  0018                     	;# 
    59  0019                     	;# 
    60  001A                     	;# 
    61  001B                     	;# 
    62  001C                     	;# 
    63  001E                     	;# 
    64  001F                     	;# 
    65  008C                     	;# 
    66  008D                     	;# 
    67  008E                     	;# 
    68  008F                     	;# 
    69  0090                     	;# 
    70  0091                     	;# 
    71  0092                     	;# 
    72  0093                     	;# 
    73  0095                     	;# 
    74  0096                     	;# 
    75  0097                     	;# 
    76  0098                     	;# 
    77  0099                     	;# 
    78  009A                     	;# 
    79  009B                     	;# 
    80  009B                     	;# 
    81  009C                     	;# 
    82  009D                     	;# 
    83  009E                     	;# 
    84  010C                     	;# 
    85  010D                     	;# 
    86  010E                     	;# 
    87  010F                     	;# 
    88  0110                     	;# 
    89  0111                     	;# 
    90  0112                     	;# 
    91  0113                     	;# 
    92  0114                     	;# 
    93  0115                     	;# 
    94  0116                     	;# 
    95  0117                     	;# 
    96  0118                     	;# 
    97  0119                     	;# 
    98  011A                     	;# 
    99  011B                     	;# 
   100  011D                     	;# 
   101  018C                     	;# 
   102  018D                     	;# 
   103  018F                     	;# 
   104  0190                     	;# 
   105  0191                     	;# 
   106  0191                     	;# 
   107  0192                     	;# 
   108  0193                     	;# 
   109  0193                     	;# 
   110  0193                     	;# 
   111  0194                     	;# 
   112  0195                     	;# 
   113  0196                     	;# 
   114  0199                     	;# 
   115  019A                     	;# 
   116  019B                     	;# 
   117  019B                     	;# 
   118  019B                     	;# 
   119  019B                     	;# 
   120  019C                     	;# 
   121  019C                     	;# 
   122  019D                     	;# 
   123  019E                     	;# 
   124  019F                     	;# 
   125  020D                     	;# 
   126  0210                     	;# 
   127  0211                     	;# 
   128  0212                     	;# 
   129  0213                     	;# 
   130  0214                     	;# 
   131  0215                     	;# 
   132  0215                     	;# 
   133  0216                     	;# 
   134  0217                     	;# 
   135  0291                     	;# 
   136  0291                     	;# 
   137  0292                     	;# 
   138  0293                     	;# 
   139  0294                     	;# 
   140  0295                     	;# 
   141  0295                     	;# 
   142  0296                     	;# 
   143  0298                     	;# 
   144  0298                     	;# 
   145  0299                     	;# 
   146  029A                     	;# 
   147  029B                     	;# 
   148  029C                     	;# 
   149  029C                     	;# 
   150  029D                     	;# 
   151  029E                     	;# 
   152  029F                     	;# 
   153  0311                     	;# 
   154  0311                     	;# 
   155  0312                     	;# 
   156  0313                     	;# 
   157  0314                     	;# 
   158  0315                     	;# 
   159  0315                     	;# 
   160  0316                     	;# 
   161  0318                     	;# 
   162  0318                     	;# 
   163  0319                     	;# 
   164  031A                     	;# 
   165  031C                     	;# 
   166  031C                     	;# 
   167  031D                     	;# 
   168  031E                     	;# 
   169  0394                     	;# 
   170  0395                     	;# 
   171  0396                     	;# 
   172  0415                     	;# 
   173  0416                     	;# 
   174  0417                     	;# 
   175  041C                     	;# 
   176  041D                     	;# 
   177  041E                     	;# 
   178  0791                     	;# 
   179  0792                     	;# 
   180  0793                     	;# 
   181  0794                     	;# 
   182  0795                     	;# 
   183  0798                     	;# 
   184  0799                     	;# 
   185  079A                     	;# 
   186  07A0                     	;# 
   187  07A1                     	;# 
   188  07A2                     	;# 
   189  07A3                     	;# 
   190  07A4                     	;# 
   191  07A5                     	;# 
   192  07A6                     	;# 
   193  07A7                     	;# 
   194  07A8                     	;# 
   195  07A9                     	;# 
   196  07AA                     	;# 
   197  07AB                     	;# 
   198  0FE4                     	;# 
   199  0FE5                     	;# 
   200  0FE6                     	;# 
   201  0FE7                     	;# 
   202  0FE8                     	;# 
   203  0FE9                     	;# 
   204  0FEA                     	;# 
   205  0FEB                     	;# 
   206  0FED                     	;# 
   207  0FEE                     	;# 
   208  0FEF                     	;# 
   209  0000                     	;# 
   210  0001                     	;# 
   211  0002                     	;# 
   212  0003                     	;# 
   213  0004                     	;# 
   214  0005                     	;# 
   215  0006                     	;# 
   216  0007                     	;# 
   217  0008                     	;# 
   218  0009                     	;# 
   219  000A                     	;# 
   220  000B                     	;# 
   221  000C                     	;# 
   222  000D                     	;# 
   223  000E                     	;# 
   224  000F                     	;# 
   225  0010                     	;# 
   226  0011                     	;# 
   227  0012                     	;# 
   228  0013                     	;# 
   229  0015                     	;# 
   230  0016                     	;# 
   231  0016                     	;# 
   232  0017                     	;# 
   233  0018                     	;# 
   234  0019                     	;# 
   235  001A                     	;# 
   236  001B                     	;# 
   237  001C                     	;# 
   238  001E                     	;# 
   239  001F                     	;# 
   240  008C                     	;# 
   241  008D                     	;# 
   242  008E                     	;# 
   243  008F                     	;# 
   244  0090                     	;# 
   245  0091                     	;# 
   246  0092                     	;# 
   247  0093                     	;# 
   248  0095                     	;# 
   249  0096                     	;# 
   250  0097                     	;# 
   251  0098                     	;# 
   252  0099                     	;# 
   253  009A                     	;# 
   254  009B                     	;# 
   255  009B                     	;# 
   256  009C                     	;# 
   257  009D                     	;# 
   258  009E                     	;# 
   259  010C                     	;# 
   260  010D                     	;# 
   261  010E                     	;# 
   262  010F                     	;# 
   263  0110                     	;# 
   264  0111                     	;# 
   265  0112                     	;# 
   266  0113                     	;# 
   267  0114                     	;# 
   268  0115                     	;# 
   269  0116                     	;# 
   270  0117                     	;# 
   271  0118                     	;# 
   272  0119                     	;# 
   273  011A                     	;# 
   274  011B                     	;# 
   275  011D                     	;# 
   276  018C                     	;# 
   277  018D                     	;# 
   278  018F                     	;# 
   279  0190                     	;# 
   280  0191                     	;# 
   281  0191                     	;# 
   282  0192                     	;# 
   283  0193                     	;# 
   284  0193                     	;# 
   285  0193                     	;# 
   286  0194                     	;# 
   287  0195                     	;# 
   288  0196                     	;# 
   289  0199                     	;# 
   290  019A                     	;# 
   291  019B                     	;# 
   292  019B                     	;# 
   293  019B                     	;# 
   294  019B                     	;# 
   295  019C                     	;# 
   296  019C                     	;# 
   297  019D                     	;# 
   298  019E                     	;# 
   299  019F                     	;# 
   300  020D                     	;# 
   301  0210                     	;# 
   302  0211                     	;# 
   303  0212                     	;# 
   304  0213                     	;# 
   305  0214                     	;# 
   306  0215                     	;# 
   307  0215                     	;# 
   308  0216                     	;# 
   309  0217                     	;# 
   310  0291                     	;# 
   311  0291                     	;# 
   312  0292                     	;# 
   313  0293                     	;# 
   314  0294                     	;# 
   315  0295                     	;# 
   316  0295                     	;# 
   317  0296                     	;# 
   318  0298                     	;# 
   319  0298                     	;# 
   320  0299                     	;# 
   321  029A                     	;# 
   322  029B                     	;# 
   323  029C                     	;# 
   324  029C                     	;# 
   325  029D                     	;# 
   326  029E                     	;# 
   327  029F                     	;# 
   328  0311                     	;# 
   329  0311                     	;# 
   330  0312                     	;# 
   331  0313                     	;# 
   332  0314                     	;# 
   333  0315                     	;# 
   334  0315                     	;# 
   335  0316                     	;# 
   336  0318                     	;# 
   337  0318                     	;# 
   338  0319                     	;# 
   339  031A                     	;# 
   340  031C                     	;# 
   341  031C                     	;# 
   342  031D                     	;# 
   343  031E                     	;# 
   344  0394                     	;# 
   345  0395                     	;# 
   346  0396                     	;# 
   347  0415                     	;# 
   348  0416                     	;# 
   349  0417                     	;# 
   350  041C                     	;# 
   351  041D                     	;# 
   352  041E                     	;# 
   353  0791                     	;# 
   354  0792                     	;# 
   355  0793                     	;# 
   356  0794                     	;# 
   357  0795                     	;# 
   358  0798                     	;# 
   359  0799                     	;# 
   360  079A                     	;# 
   361  07A0                     	;# 
   362  07A1                     	;# 
   363  07A2                     	;# 
   364  07A3                     	;# 
   365  07A4                     	;# 
   366  07A5                     	;# 
   367  07A6                     	;# 
   368  07A7                     	;# 
   369  07A8                     	;# 
   370  07A9                     	;# 
   371  07AA                     	;# 
   372  07AB                     	;# 
   373  0FE4                     	;# 
   374  0FE5                     	;# 
   375  0FE6                     	;# 
   376  0FE7                     	;# 
   377  0FE8                     	;# 
   378  0FE9                     	;# 
   379  0FEA                     	;# 
   380  0FEB                     	;# 
   381  0FED                     	;# 
   382  0FEE                     	;# 
   383  0FEF                     	;# 
   384  0000                     	;# 
   385  0001                     	;# 
   386  0002                     	;# 
   387  0003                     	;# 
   388  0004                     	;# 
   389  0005                     	;# 
   390  0006                     	;# 
   391  0007                     	;# 
   392  0008                     	;# 
   393  0009                     	;# 
   394  000A                     	;# 
   395  000B                     	;# 
   396  000C                     	;# 
   397  000D                     	;# 
   398  000E                     	;# 
   399  000F                     	;# 
   400  0010                     	;# 
   401  0011                     	;# 
   402  0012                     	;# 
   403  0013                     	;# 
   404  0015                     	;# 
   405  0016                     	;# 
   406  0016                     	;# 
   407  0017                     	;# 
   408  0018                     	;# 
   409  0019                     	;# 
   410  001A                     	;# 
   411  001B                     	;# 
   412  001C                     	;# 
   413  001E                     	;# 
   414  001F                     	;# 
   415  008C                     	;# 
   416  008D                     	;# 
   417  008E                     	;# 
   418  008F                     	;# 
   419  0090                     	;# 
   420  0091                     	;# 
   421  0092                     	;# 
   422  0093                     	;# 
   423  0095                     	;# 
   424  0096                     	;# 
   425  0097                     	;# 
   426  0098                     	;# 
   427  0099                     	;# 
   428  009A                     	;# 
   429  009B                     	;# 
   430  009B                     	;# 
   431  009C                     	;# 
   432  009D                     	;# 
   433  009E                     	;# 
   434  010C                     	;# 
   435  010D                     	;# 
   436  010E                     	;# 
   437  010F                     	;# 
   438  0110                     	;# 
   439  0111                     	;# 
   440  0112                     	;# 
   441  0113                     	;# 
   442  0114                     	;# 
   443  0115                     	;# 
   444  0116                     	;# 
   445  0117                     	;# 
   446  0118                     	;# 
   447  0119                     	;# 
   448  011A                     	;# 
   449  011B                     	;# 
   450  011D                     	;# 
   451  018C                     	;# 
   452  018D                     	;# 
   453  018F                     	;# 
   454  0190                     	;# 
   455  0191                     	;# 
   456  0191                     	;# 
   457  0192                     	;# 
   458  0193                     	;# 
   459  0193                     	;# 
   460  0193                     	;# 
   461  0194                     	;# 
   462  0195                     	;# 
   463  0196                     	;# 
   464  0199                     	;# 
   465  019A                     	;# 
   466  019B                     	;# 
   467  019B                     	;# 
   468  019B                     	;# 
   469  019B                     	;# 
   470  019C                     	;# 
   471  019C                     	;# 
   472  019D                     	;# 
   473  019E                     	;# 
   474  019F                     	;# 
   475  020D                     	;# 
   476  0210                     	;# 
   477  0211                     	;# 
   478  0212                     	;# 
   479  0213                     	;# 
   480  0214                     	;# 
   481  0215                     	;# 
   482  0215                     	;# 
   483  0216                     	;# 
   484  0217                     	;# 
   485  0291                     	;# 
   486  0291                     	;# 
   487  0292                     	;# 
   488  0293                     	;# 
   489  0294                     	;# 
   490  0295                     	;# 
   491  0295                     	;# 
   492  0296                     	;# 
   493  0298                     	;# 
   494  0298                     	;# 
   495  0299                     	;# 
   496  029A                     	;# 
   497  029B                     	;# 
   498  029C                     	;# 
   499  029C                     	;# 
   500  029D                     	;# 
   501  029E                     	;# 
   502  029F                     	;# 
   503  0311                     	;# 
   504  0311                     	;# 
   505  0312                     	;# 
   506  0313                     	;# 
   507  0314                     	;# 
   508  0315                     	;# 
   509  0315                     	;# 
   510  0316                     	;# 
   511  0318                     	;# 
   512  0318                     	;# 
   513  0319                     	;# 
   514  031A                     	;# 
   515  031C                     	;# 
   516  031C                     	;# 
   517  031D                     	;# 
   518  031E                     	;# 
   519  0394                     	;# 
   520  0395                     	;# 
   521  0396                     	;# 
   522  0415                     	;# 
   523  0416                     	;# 
   524  0417                     	;# 
   525  041C                     	;# 
   526  041D                     	;# 
   527  041E                     	;# 
   528  0791                     	;# 
   529  0792                     	;# 
   530  0793                     	;# 
   531  0794                     	;# 
   532  0795                     	;# 
   533  0798                     	;# 
   534  0799                     	;# 
   535  079A                     	;# 
   536  07A0                     	;# 
   537  07A1                     	;# 
   538  07A2                     	;# 
   539  07A3                     	;# 
   540  07A4                     	;# 
   541  07A5                     	;# 
   542  07A6                     	;# 
   543  07A7                     	;# 
   544  07A8                     	;# 
   545  07A9                     	;# 
   546  07AA                     	;# 
   547  07AB                     	;# 
   548  0FE4                     	;# 
   549  0FE5                     	;# 
   550  0FE6                     	;# 
   551  0FE7                     	;# 
   552  0FE8                     	;# 
   553  0FE9                     	;# 
   554  0FEA                     	;# 
   555  0FEB                     	;# 
   556  0FED                     	;# 
   557  0FEE                     	;# 
   558  0FEF                     	;# 
   559  0000                     	;# 
   560  0001                     	;# 
   561  0002                     	;# 
   562  0003                     	;# 
   563  0004                     	;# 
   564  0005                     	;# 
   565  0006                     	;# 
   566  0007                     	;# 
   567  0008                     	;# 
   568  0009                     	;# 
   569  000A                     	;# 
   570  000B                     	;# 
   571  000C                     	;# 
   572  000D                     	;# 
   573  000E                     	;# 
   574  000F                     	;# 
   575  0010                     	;# 
   576  0011                     	;# 
   577  0012                     	;# 
   578  0013                     	;# 
   579  0015                     	;# 
   580  0016                     	;# 
   581  0016                     	;# 
   582  0017                     	;# 
   583  0018                     	;# 
   584  0019                     	;# 
   585  001A                     	;# 
   586  001B                     	;# 
   587  001C                     	;# 
   588  001E                     	;# 
   589  001F                     	;# 
   590  008C                     	;# 
   591  008D                     	;# 
   592  008E                     	;# 
   593  008F                     	;# 
   594  0090                     	;# 
   595  0091                     	;# 
   596  0092                     	;# 
   597  0093                     	;# 
   598  0095                     	;# 
   599  0096                     	;# 
   600  0097                     	;# 
   601  0098                     	;# 
   602  0099                     	;# 
   603  009A                     	;# 
   604  009B                     	;# 
   605  009B                     	;# 
   606  009C                     	;# 
   607  009D                     	;# 
   608  009E                     	;# 
   609  010C                     	;# 
   610  010D                     	;# 
   611  010E                     	;# 
   612  010F                     	;# 
   613  0110                     	;# 
   614  0111                     	;# 
   615  0112                     	;# 
   616  0113                     	;# 
   617  0114                     	;# 
   618  0115                     	;# 
   619  0116                     	;# 
   620  0117                     	;# 
   621  0118                     	;# 
   622  0119                     	;# 
   623  011A                     	;# 
   624  011B                     	;# 
   625  011D                     	;# 
   626  018C                     	;# 
   627  018D                     	;# 
   628  018F                     	;# 
   629  0190                     	;# 
   630  0191                     	;# 
   631  0191                     	;# 
   632  0192                     	;# 
   633  0193                     	;# 
   634  0193                     	;# 
   635  0193                     	;# 
   636  0194                     	;# 
   637  0195                     	;# 
   638  0196                     	;# 
   639  0199                     	;# 
   640  019A                     	;# 
   641  019B                     	;# 
   642  019B                     	;# 
   643  019B                     	;# 
   644  019B                     	;# 
   645  019C                     	;# 
   646  019C                     	;# 
   647  019D                     	;# 
   648  019E                     	;# 
   649  019F                     	;# 
   650  020D                     	;# 
   651  0210                     	;# 
   652  0211                     	;# 
   653  0212                     	;# 
   654  0213                     	;# 
   655  0214                     	;# 
   656  0215                     	;# 
   657  0215                     	;# 
   658  0216                     	;# 
   659  0217                     	;# 
   660  0291                     	;# 
   661  0291                     	;# 
   662  0292                     	;# 
   663  0293                     	;# 
   664  0294                     	;# 
   665  0295                     	;# 
   666  0295                     	;# 
   667  0296                     	;# 
   668  0298                     	;# 
   669  0298                     	;# 
   670  0299                     	;# 
   671  029A                     	;# 
   672  029B                     	;# 
   673  029C                     	;# 
   674  029C                     	;# 
   675  029D                     	;# 
   676  029E                     	;# 
   677  029F                     	;# 
   678  0311                     	;# 
   679  0311                     	;# 
   680  0312                     	;# 
   681  0313                     	;# 
   682  0314                     	;# 
   683  0315                     	;# 
   684  0315                     	;# 
   685  0316                     	;# 
   686  0318                     	;# 
   687  0318                     	;# 
   688  0319                     	;# 
   689  031A                     	;# 
   690  031C                     	;# 
   691  031C                     	;# 
   692  031D                     	;# 
   693  031E                     	;# 
   694  0394                     	;# 
   695  0395                     	;# 
   696  0396                     	;# 
   697  0415                     	;# 
   698  0416                     	;# 
   699  0417                     	;# 
   700  041C                     	;# 
   701  041D                     	;# 
   702  041E                     	;# 
   703  0791                     	;# 
   704  0792                     	;# 
   705  0793                     	;# 
   706  0794                     	;# 
   707  0795                     	;# 
   708  0798                     	;# 
   709  0799                     	;# 
   710  079A                     	;# 
   711  07A0                     	;# 
   712  07A1                     	;# 
   713  07A2                     	;# 
   714  07A3                     	;# 
   715  07A4                     	;# 
   716  07A5                     	;# 
   717  07A6                     	;# 
   718  07A7                     	;# 
   719  07A8                     	;# 
   720  07A9                     	;# 
   721  07AA                     	;# 
   722  07AB                     	;# 
   723  0FE4                     	;# 
   724  0FE5                     	;# 
   725  0FE6                     	;# 
   726  0FE7                     	;# 
   727  0FE8                     	;# 
   728  0FE9                     	;# 
   729  0FEA                     	;# 
   730  0FEB                     	;# 
   731  0FED                     	;# 
   732  0FEE                     	;# 
   733  0FEF                     	;# 
   734                           
   735                           	psect	stringtext
   736  0800                     __pstringtext:	
   737  0800                     _dpowers:	
   738  0800  3401               	retlw	1
   739  0801  3400               	retlw	0
   740  0802  340A               	retlw	10
   741  0803  3400               	retlw	0
   742  0804  3464               	retlw	100
   743  0805  3400               	retlw	0
   744  0806  34E8               	retlw	232
   745  0807  3403               	retlw	3
   746  0808  3410               	retlw	16
   747  0809  3427               	retlw	39
   748  080A                     __end_of_dpowers:	
   749  080A                     _hexpowers:	
   750  080A  3401               	retlw	1
   751  080B  3400               	retlw	0
   752  080C  3410               	retlw	16
   753  080D  3400               	retlw	0
   754  080E  3400               	retlw	0
   755  080F  3401               	retlw	1
   756  0810  3400               	retlw	0
   757  0811  3410               	retlw	16
   758  0812                     __end_of_hexpowers:	
   759  0011                     _PIR1bits	set	17
   760  000D                     _PORTBbits	set	13
   761  0095                     _OPTION_REGbits	set	149
   762  0099                     _OSCCON	set	153
   763  009A                     _OSCSTAT	set	154
   764  0098                     _OSCTUNE	set	152
   765  008C                     _TRISA	set	140
   766  008D                     _TRISB	set	141
   767  008E                     _TRISC	set	142
   768  008E                     _TRISCbits	set	142
   769  008F                     _TRISD	set	143
   770  0090                     _TRISE	set	144
   771  011D                     _APFCON	set	285
   772  010C                     _LATA	set	268
   773  010D                     _LATB	set	269
   774  010E                     _LATC	set	270
   775  010F                     _LATD	set	271
   776  010F                     _LATDbits	set	271
   777  0110                     _LATE	set	272
   778  018C                     _ANSELA	set	396
   779  018D                     _ANSELB	set	397
   780  018F                     _ANSELD	set	399
   781  0190                     _ANSELE	set	400
   782  019F                     _BAUDCON	set	415
   783  0199                     _RCREG	set	409
   784  019D                     _RCSTA	set	413
   785  019D                     _RCSTAbits	set	413
   786  019C                     _SPBRGH	set	412
   787  019B                     _SPBRGL	set	411
   788  019A                     _TXREG	set	410
   789  019E                     _TXSTA	set	414
   790  0212                     _SSPADD	set	530
   791  0211                     _SSPBUF	set	529
   792  0215                     _SSPCON	set	533
   793  0216                     _SSPCON2	set	534
   794  0216                     _SSPCON2bits	set	534
   795  0214                     _SSPSTAT	set	532
   796  020D                     _WPUB	set	525
   797  0210                     _WPUE	set	528
   798  10B6                     _ACKSTAT	set	4278
   799  0812                     STR_10:	
   800  0812  340D               	retlw	13
   801  0813  340A               	retlw	10
   802  0814  3420               	retlw	32	;' '
   803  0815  3445               	retlw	69	;'E'
   804  0816  346E               	retlw	110	;'n'
   805  0817  3476               	retlw	118	;'v'
   806  0818  3469               	retlw	105	;'i'
   807  0819  3465               	retlw	101	;'e'
   808  081A  3420               	retlw	32	;' '
   809  081B  3465               	retlw	101	;'e'
   810  081C  346C               	retlw	108	;'l'
   811  081D  3420               	retlw	32	;' '
   812  081E  3464               	retlw	100	;'d'
   813  081F  3469               	retlw	105	;'i'
   814  0820  3461               	retlw	97	;'a'
   815  0821  3420               	retlw	32	;' '
   816  0822  3464               	retlw	100	;'d'
   817  0823  3465               	retlw	101	;'e'
   818  0824  3420               	retlw	32	;' '
   819  0825  346C               	retlw	108	;'l'
   820  0826  3461               	retlw	97	;'a'
   821  0827  3420               	retlw	32	;' '
   822  0828  3473               	retlw	115	;'s'
   823  0829  3465               	retlw	101	;'e'
   824  082A  346D               	retlw	109	;'m'
   825  082B  3461               	retlw	97	;'a'
   826  082C  346E               	retlw	110	;'n'
   827  082D  3461               	retlw	97	;'a'
   828  082E  3420               	retlw	32	;' '
   829  082F  3473               	retlw	115	;'s'
   830  0830  3469               	retlw	105	;'i'
   831  0831  3465               	retlw	101	;'e'
   832  0832  346E               	retlw	110	;'n'
   833  0833  3464               	retlw	100	;'d'
   834  0834  346F               	retlw	111	;'o'
   835  0835  3420               	retlw	32	;' '
   836  0836  3464               	retlw	100	;'d'
   837  0837  346F               	retlw	111	;'o'
   838  0838  346D               	retlw	109	;'m'
   839  0839  3469               	retlw	105	;'i'
   840  083A  346E               	retlw	110	;'n'
   841  083B  3467               	retlw	103	;'g'
   842  083C  346F               	retlw	111	;'o'
   843  083D  3420               	retlw	32	;' '
   844  083E  3430               	retlw	48	;'0'
   845  083F  3431               	retlw	49	;'1'
   846  0840  3420               	retlw	32	;' '
   847  0841  3479               	retlw	121	;'y'
   848  0842  3420               	retlw	32	;' '
   849  0843  3453               	retlw	83	;'S'
   850  0844  3461               	retlw	97	;'a'
   851  0845  3462               	retlw	98	;'b'
   852  0846  3461               	retlw	97	;'a'
   853  0847  3464               	retlw	100	;'d'
   854  0848  346F               	retlw	111	;'o'
   855  0849  3420               	retlw	32	;' '
   856  084A  3430               	retlw	48	;'0'
   857  084B  3437               	retlw	55	;'7'
   858  084C  342E               	retlw	46	;'.'
   859  084D  3420               	retlw	32	;' '
   860  084E  3445               	retlw	69	;'E'
   861  084F  346A               	retlw	106	;'j'
   862  0850  3420               	retlw	32	;' '
   863  0851  344D               	retlw	77	;'M'
   864  0852  3461               	retlw	97	;'a'
   865  0853  3472               	retlw	114	;'r'
   866  0854  3474               	retlw	116	;'t'
   867  0855  3465               	retlw	101	;'e'
   868  0856  3473               	retlw	115	;'s'
   869  0857  343D               	retlw	61	;'='
   870  0858  3420               	retlw	32	;' '
   871  0859  3430               	retlw	48	;'0'
   872  085A  3433               	retlw	51	;'3'
   873  085B  3420               	retlw	32	;' '
   874  085C  340D               	retlw	13
   875  085D  340A               	retlw	10
   876  085E  3400               	retlw	0
   877  085F                     STR_16:	
   878  085F  340D               	retlw	13
   879  0860  340A               	retlw	10
   880  0861  3420               	retlw	32	;' '
   881  0862  3445               	retlw	69	;'E'
   882  0863  346E               	retlw	110	;'n'
   883  0864  3476               	retlw	118	;'v'
   884  0865  3469               	retlw	105	;'i'
   885  0866  3465               	retlw	101	;'e'
   886  0867  3420               	retlw	32	;' '
   887  0868  3465               	retlw	101	;'e'
   888  0869  346C               	retlw	108	;'l'
   889  086A  3420               	retlw	32	;' '
   890  086B  346E               	retlw	110	;'n'
   891  086C  3475               	retlw	117	;'u'
   892  086D  346D               	retlw	109	;'m'
   893  086E  3465               	retlw	101	;'e'
   894  086F  3472               	retlw	114	;'r'
   895  0870  346F               	retlw	111	;'o'
   896  0871  3420               	retlw	32	;' '
   897  0872  3464               	retlw	100	;'d'
   898  0873  3465               	retlw	101	;'e'
   899  0874  346C               	retlw	108	;'l'
   900  0875  3420               	retlw	32	;' '
   901  0876  3461               	retlw	97	;'a'
   902  0877  34F1               	retlw	-15
   903  0878  346F               	retlw	111	;'o'
   904  0879  342E               	retlw	46	;'.'
   905  087A  3420               	retlw	32	;' '
   906  087B  3445               	retlw	69	;'E'
   907  087C  346A               	retlw	106	;'j'
   908  087D  3420               	retlw	32	;' '
   909  087E  3431               	retlw	49	;'1'
   910  087F  3436               	retlw	54	;'6'
   911  0880  3420               	retlw	32	;' '
   912  0881  3470               	retlw	112	;'p'
   913  0882  3461               	retlw	97	;'a'
   914  0883  3472               	retlw	114	;'r'
   915  0884  3461               	retlw	97	;'a'
   916  0885  3420               	retlw	32	;' '
   917  0886  3432               	retlw	50	;'2'
   918  0887  3430               	retlw	48	;'0'
   919  0888  3431               	retlw	49	;'1'
   920  0889  3436               	retlw	54	;'6'
   921  088A  3420               	retlw	32	;' '
   922  088B  340D               	retlw	13
   923  088C  340A               	retlw	10
   924  088D  3400               	retlw	0
   925  088E                     STR_14:	
   926  088E  340D               	retlw	13
   927  088F  340A               	retlw	10
   928  0890  3420               	retlw	32	;' '
   929  0891  3445               	retlw	69	;'E'
   930  0892  346E               	retlw	110	;'n'
   931  0893  3476               	retlw	118	;'v'
   932  0894  3469               	retlw	105	;'i'
   933  0895  3465               	retlw	101	;'e'
   934  0896  3420               	retlw	32	;' '
   935  0897  3465               	retlw	101	;'e'
   936  0898  346C               	retlw	108	;'l'
   937  0899  3420               	retlw	32	;' '
   938  089A  346E               	retlw	110	;'n'
   939  089B  3475               	retlw	117	;'u'
   940  089C  346D               	retlw	109	;'m'
   941  089D  3465               	retlw	101	;'e'
   942  089E  3472               	retlw	114	;'r'
   943  089F  346F               	retlw	111	;'o'
   944  08A0  3420               	retlw	32	;' '
   945  08A1  3464               	retlw	100	;'d'
   946  08A2  3465               	retlw	101	;'e'
   947  08A3  346C               	retlw	108	;'l'
   948  08A4  3420               	retlw	32	;' '
   949  08A5  346D               	retlw	109	;'m'
   950  08A6  3465               	retlw	101	;'e'
   951  08A7  3473               	retlw	115	;'s'
   952  08A8  342E               	retlw	46	;'.'
   953  08A9  3420               	retlw	32	;' '
   954  08AA  3445               	retlw	69	;'E'
   955  08AB  346A               	retlw	106	;'j'
   956  08AC  3420               	retlw	32	;' '
   957  08AD  3430               	retlw	48	;'0'
   958  08AE  3435               	retlw	53	;'5'
   959  08AF  3420               	retlw	32	;' '
   960  08B0  3470               	retlw	112	;'p'
   961  08B1  3461               	retlw	97	;'a'
   962  08B2  3472               	retlw	114	;'r'
   963  08B3  3461               	retlw	97	;'a'
   964  08B4  3420               	retlw	32	;' '
   965  08B5  346D               	retlw	109	;'m'
   966  08B6  3461               	retlw	97	;'a'
   967  08B7  3479               	retlw	121	;'y'
   968  08B8  346F               	retlw	111	;'o'
   969  08B9  3420               	retlw	32	;' '
   970  08BA  340D               	retlw	13
   971  08BB  340A               	retlw	10
   972  08BC  3400               	retlw	0
   973  08BD                     STR_8:	
   974  08BD  340D               	retlw	13
   975  08BE  340A               	retlw	10
   976  08BF  3420               	retlw	32	;' '
   977  08C0  3445               	retlw	69	;'E'
   978  08C1  346E               	retlw	110	;'n'
   979  08C2  3476               	retlw	118	;'v'
   980  08C3  3469               	retlw	105	;'i'
   981  08C4  3465               	retlw	101	;'e'
   982  08C5  3420               	retlw	32	;' '
   983  08C6  346C               	retlw	108	;'l'
   984  08C7  3461               	retlw	97	;'a'
   985  08C8  3473               	retlw	115	;'s'
   986  08C9  3420               	retlw	32	;' '
   987  08CA  3448               	retlw	72	;'H'
   988  08CB  346F               	retlw	111	;'o'
   989  08CC  3472               	retlw	114	;'r'
   990  08CD  3461               	retlw	97	;'a'
   991  08CE  3473               	retlw	115	;'s'
   992  08CF  3420               	retlw	32	;' '
   993  08D0  3465               	retlw	101	;'e'
   994  08D1  346E               	retlw	110	;'n'
   995  08D2  3420               	retlw	32	;' '
   996  08D3  3466               	retlw	102	;'f'
   997  08D4  346F               	retlw	111	;'o'
   998  08D5  3472               	retlw	114	;'r'
   999  08D6  346D               	retlw	109	;'m'
  1000  08D7  3461               	retlw	97	;'a'
  1001  08D8  3474               	retlw	116	;'t'
  1002  08D9  346F               	retlw	111	;'o'
  1003  08DA  3420               	retlw	32	;' '
  1004  08DB  3432               	retlw	50	;'2'
  1005  08DC  3434               	retlw	52	;'4'
  1006  08DD  3420               	retlw	32	;' '
  1007  08DE  3445               	retlw	69	;'E'
  1008  08DF  346A               	retlw	106	;'j'
  1009  08E0  343A               	retlw	58	;':'
  1010  08E1  3420               	retlw	32	;' '
  1011  08E2  3431               	retlw	49	;'1'
  1012  08E3  3435               	retlw	53	;'5'
  1013  08E4  3420               	retlw	32	;' '
  1014  08E5  340D               	retlw	13
  1015  08E6  340A               	retlw	10
  1016  08E7  3400               	retlw	0
  1017  08E8                     STR_11:	
  1018  08E8  340D               	retlw	13
  1019  08E9  340A               	retlw	10
  1020  08EA  3420               	retlw	32	;' '
  1021  08EB  3445               	retlw	69	;'E'
  1022  08EC  346C               	retlw	108	;'l'
  1023  08ED  3420               	retlw	32	;' '
  1024  08EE  3464               	retlw	100	;'d'
  1025  08EF  3469               	retlw	105	;'i'
  1026  08F0  3461               	retlw	97	;'a'
  1027  08F1  3420               	retlw	32	;' '
  1028  08F2  3464               	retlw	100	;'d'
  1029  08F3  3465               	retlw	101	;'e'
  1030  08F4  3420               	retlw	32	;' '
  1031  08F5  346C               	retlw	108	;'l'
  1032  08F6  3461               	retlw	97	;'a'
  1033  08F7  3420               	retlw	32	;' '
  1034  08F8  3473               	retlw	115	;'s'
  1035  08F9  3465               	retlw	101	;'e'
  1036  08FA  346D               	retlw	109	;'m'
  1037  08FB  3461               	retlw	97	;'a'
  1038  08FC  346E               	retlw	110	;'n'
  1039  08FD  3461               	retlw	97	;'a'
  1040  08FE  3420               	retlw	32	;' '
  1041  08FF  3472               	retlw	114	;'r'
  1042  0900  3465               	retlw	101	;'e'
  1043  0901  3463               	retlw	99	;'c'
  1044  0902  3469               	retlw	105	;'i'
  1045  0903  3462               	retlw	98	;'b'
  1046  0904  3469               	retlw	105	;'i'
  1047  0905  3464               	retlw	100	;'d'
  1048  0906  346F               	retlw	111	;'o'
  1049  0907  3420               	retlw	32	;' '
  1050  0908  3466               	retlw	102	;'f'
  1051  0909  3475               	retlw	117	;'u'
  1052  090A  3465               	retlw	101	;'e'
  1053  090B  3420               	retlw	32	;' '
  1054  090C  3425               	retlw	37	;'%'
  1055  090D  3478               	retlw	120	;'x'
  1056  090E  3400               	retlw	0
  1057  090F                     STR_21:	
  1058  090F  340D               	retlw	13
  1059  0910  340A               	retlw	10
  1060  0911  3420               	retlw	32	;' '
  1061  0912  344C               	retlw	76	;'L'
  1062  0913  3461               	retlw	97	;'a'
  1063  0914  3420               	retlw	32	;' '
  1064  0915  3466               	retlw	102	;'f'
  1065  0916  3465               	retlw	101	;'e'
  1066  0917  3463               	retlw	99	;'c'
  1067  0918  3468               	retlw	104	;'h'
  1068  0919  3461               	retlw	97	;'a'
  1069  091A  3420               	retlw	32	;' '
  1070  091B  3465               	retlw	101	;'e'
  1071  091C  3473               	retlw	115	;'s'
  1072  091D  343A               	retlw	58	;':'
  1073  091E  3420               	retlw	32	;' '
  1074  091F  3425               	retlw	37	;'%'
  1075  0920  3430               	retlw	48	;'0'
  1076  0921  3432               	retlw	50	;'2'
  1077  0922  3464               	retlw	100	;'d'
  1078  0923  3420               	retlw	32	;' '
  1079  0924  342F               	retlw	47	;'/'
  1080  0925  3420               	retlw	32	;' '
  1081  0926  3425               	retlw	37	;'%'
  1082  0927  3430               	retlw	48	;'0'
  1083  0928  3432               	retlw	50	;'2'
  1084  0929  3464               	retlw	100	;'d'
  1085  092A  3420               	retlw	32	;' '
  1086  092B  342F               	retlw	47	;'/'
  1087  092C  3420               	retlw	32	;' '
  1088  092D  3432               	retlw	50	;'2'
  1089  092E  3430               	retlw	48	;'0'
  1090  092F  3425               	retlw	37	;'%'
  1091  0930  3430               	retlw	48	;'0'
  1092  0931  3432               	retlw	50	;'2'
  1093  0932  3464               	retlw	100	;'d'
  1094  0933  3400               	retlw	0
  1095  0934                     STR_15:	
  1096  0934  340D               	retlw	13
  1097  0935  340A               	retlw	10
  1098  0936  3420               	retlw	32	;' '
  1099  0937  3445               	retlw	69	;'E'
  1100  0938  346C               	retlw	108	;'l'
  1101  0939  3420               	retlw	32	;' '
  1102  093A  344E               	retlw	78	;'N'
  1103  093B  3475               	retlw	117	;'u'
  1104  093C  346D               	retlw	109	;'m'
  1105  093D  3465               	retlw	101	;'e'
  1106  093E  3472               	retlw	114	;'r'
  1107  093F  346F               	retlw	111	;'o'
  1108  0940  3420               	retlw	32	;' '
  1109  0941  3464               	retlw	100	;'d'
  1110  0942  3465               	retlw	101	;'e'
  1111  0943  346C               	retlw	108	;'l'
  1112  0944  3420               	retlw	32	;' '
  1113  0945  346D               	retlw	109	;'m'
  1114  0946  3465               	retlw	101	;'e'
  1115  0947  3473               	retlw	115	;'s'
  1116  0948  3420               	retlw	32	;' '
  1117  0949  3472               	retlw	114	;'r'
  1118  094A  3465               	retlw	101	;'e'
  1119  094B  3463               	retlw	99	;'c'
  1120  094C  3469               	retlw	105	;'i'
  1121  094D  3462               	retlw	98	;'b'
  1122  094E  3469               	retlw	105	;'i'
  1123  094F  3464               	retlw	100	;'d'
  1124  0950  346F               	retlw	111	;'o'
  1125  0951  3420               	retlw	32	;' '
  1126  0952  3466               	retlw	102	;'f'
  1127  0953  3475               	retlw	117	;'u'
  1128  0954  3465               	retlw	101	;'e'
  1129  0955  3420               	retlw	32	;' '
  1130  0956  3425               	retlw	37	;'%'
  1131  0957  3478               	retlw	120	;'x'
  1132  0958  3400               	retlw	0
  1133  0959                     STR_5:	
  1134  0959  340D               	retlw	13
  1135  095A  340A               	retlw	10
  1136  095B  3420               	retlw	32	;' '
  1137  095C  344C               	retlw	76	;'L'
  1138  095D  346F               	retlw	111	;'o'
  1139  095E  3473               	retlw	115	;'s'
  1140  095F  3420               	retlw	32	;' '
  1141  0960  3473               	retlw	115	;'s'
  1142  0961  3465               	retlw	101	;'e'
  1143  0962  3467               	retlw	103	;'g'
  1144  0963  3475               	retlw	117	;'u'
  1145  0964  346E               	retlw	110	;'n'
  1146  0965  3464               	retlw	100	;'d'
  1147  0966  346F               	retlw	111	;'o'
  1148  0967  3473               	retlw	115	;'s'
  1149  0968  3420               	retlw	32	;' '
  1150  0969  3472               	retlw	114	;'r'
  1151  096A  3465               	retlw	101	;'e'
  1152  096B  3463               	retlw	99	;'c'
  1153  096C  3469               	retlw	105	;'i'
  1154  096D  3462               	retlw	98	;'b'
  1155  096E  3469               	retlw	105	;'i'
  1156  096F  3464               	retlw	100	;'d'
  1157  0970  346F               	retlw	111	;'o'
  1158  0971  3473               	retlw	115	;'s'
  1159  0972  3420               	retlw	32	;' '
  1160  0973  3466               	retlw	102	;'f'
  1161  0974  3475               	retlw	117	;'u'
  1162  0975  3465               	retlw	101	;'e'
  1163  0976  3472               	retlw	114	;'r'
  1164  0977  346F               	retlw	111	;'o'
  1165  0978  346E               	retlw	110	;'n'
  1166  0979  3420               	retlw	32	;' '
  1167  097A  3425               	retlw	37	;'%'
  1168  097B  3478               	retlw	120	;'x'
  1169  097C  3400               	retlw	0
  1170  097D                     STR_7:	
  1171  097D  340D               	retlw	13
  1172  097E  340A               	retlw	10
  1173  097F  3420               	retlw	32	;' '
  1174  0980  344C               	retlw	76	;'L'
  1175  0981  346F               	retlw	111	;'o'
  1176  0982  3473               	retlw	115	;'s'
  1177  0983  3420               	retlw	32	;' '
  1178  0984  344D               	retlw	77	;'M'
  1179  0985  3469               	retlw	105	;'i'
  1180  0986  346E               	retlw	110	;'n'
  1181  0987  3475               	retlw	117	;'u'
  1182  0988  3474               	retlw	116	;'t'
  1183  0989  346F               	retlw	111	;'o'
  1184  098A  3473               	retlw	115	;'s'
  1185  098B  3420               	retlw	32	;' '
  1186  098C  3472               	retlw	114	;'r'
  1187  098D  3465               	retlw	101	;'e'
  1188  098E  3463               	retlw	99	;'c'
  1189  098F  3469               	retlw	105	;'i'
  1190  0990  3462               	retlw	98	;'b'
  1191  0991  3469               	retlw	105	;'i'
  1192  0992  3464               	retlw	100	;'d'
  1193  0993  346F               	retlw	111	;'o'
  1194  0994  3473               	retlw	115	;'s'
  1195  0995  3420               	retlw	32	;' '
  1196  0996  3466               	retlw	102	;'f'
  1197  0997  3475               	retlw	117	;'u'
  1198  0998  3465               	retlw	101	;'e'
  1199  0999  3472               	retlw	114	;'r'
  1200  099A  346F               	retlw	111	;'o'
  1201  099B  346E               	retlw	110	;'n'
  1202  099C  3420               	retlw	32	;' '
  1203  099D  3425               	retlw	37	;'%'
  1204  099E  3478               	retlw	120	;'x'
  1205  099F  3400               	retlw	0
  1206  09A0                     STR_12:	
  1207  09A0  340D               	retlw	13
  1208  09A1  340A               	retlw	10
  1209  09A2  3420               	retlw	32	;' '
  1210  09A3  3445               	retlw	69	;'E'
  1211  09A4  346E               	retlw	110	;'n'
  1212  09A5  3476               	retlw	118	;'v'
  1213  09A6  3469               	retlw	105	;'i'
  1214  09A7  3465               	retlw	101	;'e'
  1215  09A8  3420               	retlw	32	;' '
  1216  09A9  3465               	retlw	101	;'e'
  1217  09AA  346C               	retlw	108	;'l'
  1218  09AB  3420               	retlw	32	;' '
  1219  09AC  3464               	retlw	100	;'d'
  1220  09AD  3469               	retlw	105	;'i'
  1221  09AE  3461               	retlw	97	;'a'
  1222  09AF  3420               	retlw	32	;' '
  1223  09B0  3464               	retlw	100	;'d'
  1224  09B1  3465               	retlw	101	;'e'
  1225  09B2  346C               	retlw	108	;'l'
  1226  09B3  3420               	retlw	32	;' '
  1227  09B4  346D               	retlw	109	;'m'
  1228  09B5  3465               	retlw	101	;'e'
  1229  09B6  3473               	retlw	115	;'s'
  1230  09B7  342E               	retlw	46	;'.'
  1231  09B8  3420               	retlw	32	;' '
  1232  09B9  3445               	retlw	69	;'E'
  1233  09BA  346A               	retlw	106	;'j'
  1234  09BB  3420               	retlw	32	;' '
  1235  09BC  3432               	retlw	50	;'2'
  1236  09BD  3438               	retlw	56	;'8'
  1237  09BE  3420               	retlw	32	;' '
  1238  09BF  340D               	retlw	13
  1239  09C0  340A               	retlw	10
  1240  09C1  3400               	retlw	0
  1241  09C2                     STR_13:	
  1242  09C2  340D               	retlw	13
  1243  09C3  340A               	retlw	10
  1244  09C4  3420               	retlw	32	;' '
  1245  09C5  3445               	retlw	69	;'E'
  1246  09C6  346C               	retlw	108	;'l'
  1247  09C7  3420               	retlw	32	;' '
  1248  09C8  3464               	retlw	100	;'d'
  1249  09C9  3469               	retlw	105	;'i'
  1250  09CA  3461               	retlw	97	;'a'
  1251  09CB  3420               	retlw	32	;' '
  1252  09CC  3464               	retlw	100	;'d'
  1253  09CD  3465               	retlw	101	;'e'
  1254  09CE  346C               	retlw	108	;'l'
  1255  09CF  3420               	retlw	32	;' '
  1256  09D0  346D               	retlw	109	;'m'
  1257  09D1  3465               	retlw	101	;'e'
  1258  09D2  3473               	retlw	115	;'s'
  1259  09D3  3420               	retlw	32	;' '
  1260  09D4  3472               	retlw	114	;'r'
  1261  09D5  3465               	retlw	101	;'e'
  1262  09D6  3463               	retlw	99	;'c'
  1263  09D7  3469               	retlw	105	;'i'
  1264  09D8  3462               	retlw	98	;'b'
  1265  09D9  3469               	retlw	105	;'i'
  1266  09DA  3464               	retlw	100	;'d'
  1267  09DB  346F               	retlw	111	;'o'
  1268  09DC  3420               	retlw	32	;' '
  1269  09DD  3466               	retlw	102	;'f'
  1270  09DE  3475               	retlw	117	;'u'
  1271  09DF  3465               	retlw	101	;'e'
  1272  09E0  3420               	retlw	32	;' '
  1273  09E1  3425               	retlw	37	;'%'
  1274  09E2  3478               	retlw	120	;'x'
  1275  09E3  3400               	retlw	0
  1276  09E4                     STR_9:	
  1277  09E4  340D               	retlw	13
  1278  09E5  340A               	retlw	10
  1279  09E6  3420               	retlw	32	;' '
  1280  09E7  344C               	retlw	76	;'L'
  1281  09E8  3461               	retlw	97	;'a'
  1282  09E9  3473               	retlw	115	;'s'
  1283  09EA  3420               	retlw	32	;' '
  1284  09EB  3448               	retlw	72	;'H'
  1285  09EC  346F               	retlw	111	;'o'
  1286  09ED  3472               	retlw	114	;'r'
  1287  09EE  3461               	retlw	97	;'a'
  1288  09EF  3473               	retlw	115	;'s'
  1289  09F0  3420               	retlw	32	;' '
  1290  09F1  3472               	retlw	114	;'r'
  1291  09F2  3465               	retlw	101	;'e'
  1292  09F3  3463               	retlw	99	;'c'
  1293  09F4  3469               	retlw	105	;'i'
  1294  09F5  3462               	retlw	98	;'b'
  1295  09F6  3469               	retlw	105	;'i'
  1296  09F7  3464               	retlw	100	;'d'
  1297  09F8  3461               	retlw	97	;'a'
  1298  09F9  3473               	retlw	115	;'s'
  1299  09FA  3420               	retlw	32	;' '
  1300  09FB  3466               	retlw	102	;'f'
  1301  09FC  3475               	retlw	117	;'u'
  1302  09FD  3465               	retlw	101	;'e'
  1303  09FE  3472               	retlw	114	;'r'
  1304  09FF  346F               	retlw	111	;'o'
  1305  0A00  346E               	retlw	110	;'n'
  1306  0A01  3420               	retlw	32	;' '
  1307  0A02  3425               	retlw	37	;'%'
  1308  0A03  3478               	retlw	120	;'x'
  1309  0A04  3400               	retlw	0
  1310  0A05                     STR_4:	
  1311  0A05  340D               	retlw	13
  1312  0A06  340A               	retlw	10
  1313  0A07  3420               	retlw	32	;' '
  1314  0A08  3445               	retlw	69	;'E'
  1315  0A09  346E               	retlw	110	;'n'
  1316  0A0A  3476               	retlw	118	;'v'
  1317  0A0B  3469               	retlw	105	;'i'
  1318  0A0C  3465               	retlw	101	;'e'
  1319  0A0D  3420               	retlw	32	;' '
  1320  0A0E  346C               	retlw	108	;'l'
  1321  0A0F  346F               	retlw	111	;'o'
  1322  0A10  3473               	retlw	115	;'s'
  1323  0A11  3420               	retlw	32	;' '
  1324  0A12  3473               	retlw	115	;'s'
  1325  0A13  3465               	retlw	101	;'e'
  1326  0A14  3467               	retlw	103	;'g'
  1327  0A15  3475               	retlw	117	;'u'
  1328  0A16  346E               	retlw	110	;'n'
  1329  0A17  3464               	retlw	100	;'d'
  1330  0A18  346F               	retlw	111	;'o'
  1331  0A19  3473               	retlw	115	;'s'
  1332  0A1A  3420               	retlw	32	;' '
  1333  0A1B  3445               	retlw	69	;'E'
  1334  0A1C  346A               	retlw	106	;'j'
  1335  0A1D  343A               	retlw	58	;':'
  1336  0A1E  3420               	retlw	32	;' '
  1337  0A1F  3431               	retlw	49	;'1'
  1338  0A20  3433               	retlw	51	;'3'
  1339  0A21  3420               	retlw	32	;' '
  1340  0A22  340D               	retlw	13
  1341  0A23  340A               	retlw	10
  1342  0A24  3400               	retlw	0
  1343  0A25                     STR_2:	
  1344  0A25  340D               	retlw	13
  1345  0A26  340A               	retlw	10
  1346  0A27  3420               	retlw	32	;' '
  1347  0A28  3456               	retlw	86	;'V'
  1348  0A29  3475               	retlw	117	;'u'
  1349  0A2A  3465               	retlw	101	;'e'
  1350  0A2B  346C               	retlw	108	;'l'
  1351  0A2C  3476               	retlw	118	;'v'
  1352  0A2D  3461               	retlw	97	;'a'
  1353  0A2E  3420               	retlw	32	;' '
  1354  0A2F  3461               	retlw	97	;'a'
  1355  0A30  3420               	retlw	32	;' '
  1356  0A31  3467               	retlw	103	;'g'
  1357  0A32  3472               	retlw	114	;'r'
  1358  0A33  3461               	retlw	97	;'a'
  1359  0A34  3462               	retlw	98	;'b'
  1360  0A35  3461               	retlw	97	;'a'
  1361  0A36  3472               	retlw	114	;'r'
  1362  0A37  3420               	retlw	32	;' '
  1363  0A38  346C               	retlw	108	;'l'
  1364  0A39  346F               	retlw	111	;'o'
  1365  0A3A  3473               	retlw	115	;'s'
  1366  0A3B  3420               	retlw	32	;' '
  1367  0A3C  3464               	retlw	100	;'d'
  1368  0A3D  3461               	retlw	97	;'a'
  1369  0A3E  3474               	retlw	116	;'t'
  1370  0A3F  346F               	retlw	111	;'o'
  1371  0A40  3473               	retlw	115	;'s'
  1372  0A41  3420               	retlw	32	;' '
  1373  0A42  340D               	retlw	13
  1374  0A43  340A               	retlw	10
  1375  0A44  3400               	retlw	0
  1376  0A45                     STR_6:	
  1377  0A45  340D               	retlw	13
  1378  0A46  340A               	retlw	10
  1379  0A47  3420               	retlw	32	;' '
  1380  0A48  3445               	retlw	69	;'E'
  1381  0A49  346E               	retlw	110	;'n'
  1382  0A4A  3476               	retlw	118	;'v'
  1383  0A4B  3469               	retlw	105	;'i'
  1384  0A4C  3465               	retlw	101	;'e'
  1385  0A4D  3420               	retlw	32	;' '
  1386  0A4E  346C               	retlw	108	;'l'
  1387  0A4F  346F               	retlw	111	;'o'
  1388  0A50  3473               	retlw	115	;'s'
  1389  0A51  3420               	retlw	32	;' '
  1390  0A52  344D               	retlw	77	;'M'
  1391  0A53  3469               	retlw	105	;'i'
  1392  0A54  346E               	retlw	110	;'n'
  1393  0A55  3475               	retlw	117	;'u'
  1394  0A56  3474               	retlw	116	;'t'
  1395  0A57  346F               	retlw	111	;'o'
  1396  0A58  3473               	retlw	115	;'s'
  1397  0A59  3420               	retlw	32	;' '
  1398  0A5A  3445               	retlw	69	;'E'
  1399  0A5B  346A               	retlw	106	;'j'
  1400  0A5C  343A               	retlw	58	;':'
  1401  0A5D  3420               	retlw	32	;' '
  1402  0A5E  3432               	retlw	50	;'2'
  1403  0A5F  3435               	retlw	53	;'5'
  1404  0A60  3420               	retlw	32	;' '
  1405  0A61  340D               	retlw	13
  1406  0A62  340A               	retlw	10
  1407  0A63  3400               	retlw	0
  1408  0A64                     STR_1:	
  1409  0A64  340D               	retlw	13
  1410  0A65  340A               	retlw	10
  1411  0A66  3420               	retlw	32	;' '
  1412  0A67  3453               	retlw	83	;'S'
  1413  0A68  346F               	retlw	111	;'o'
  1414  0A69  346C               	retlw	108	;'l'
  1415  0A6A  346F               	retlw	111	;'o'
  1416  0A6B  3420               	retlw	32	;' '
  1417  0A6C  3473               	retlw	115	;'s'
  1418  0A6D  3465               	retlw	101	;'e'
  1419  0A6E  3420               	retlw	32	;' '
  1420  0A6F  3470               	retlw	112	;'p'
  1421  0A70  3465               	retlw	101	;'e'
  1422  0A71  3472               	retlw	114	;'r'
  1423  0A72  346D               	retlw	109	;'m'
  1424  0A73  3469               	retlw	105	;'i'
  1425  0A74  3474               	retlw	116	;'t'
  1426  0A75  3465               	retlw	101	;'e'
  1427  0A76  346E               	retlw	110	;'n'
  1428  0A77  3420               	retlw	32	;' '
  1429  0A78  346E               	retlw	110	;'n'
  1430  0A79  3475               	retlw	117	;'u'
  1431  0A7A  346D               	retlw	109	;'m'
  1432  0A7B  3465               	retlw	101	;'e'
  1433  0A7C  3472               	retlw	114	;'r'
  1434  0A7D  346F               	retlw	111	;'o'
  1435  0A7E  3473               	retlw	115	;'s'
  1436  0A7F  3420               	retlw	32	;' '
  1437  0A80  340D               	retlw	13
  1438  0A81  340A               	retlw	10
  1439  0A82  3400               	retlw	0
  1440  0A83                     STR_20:	
  1441  0A83  3420               	retlw	32	;' '
  1442  0A84  344C               	retlw	76	;'L'
  1443  0A85  3461               	retlw	97	;'a'
  1444  0A86  3420               	retlw	32	;' '
  1445  0A87  3448               	retlw	72	;'H'
  1446  0A88  346F               	retlw	111	;'o'
  1447  0A89  3472               	retlw	114	;'r'
  1448  0A8A  3461               	retlw	97	;'a'
  1449  0A8B  3420               	retlw	32	;' '
  1450  0A8C  3465               	retlw	101	;'e'
  1451  0A8D  3473               	retlw	115	;'s'
  1452  0A8E  343A               	retlw	58	;':'
  1453  0A8F  3420               	retlw	32	;' '
  1454  0A90  3420               	retlw	32	;' '
  1455  0A91  3420               	retlw	32	;' '
  1456  0A92  3420               	retlw	32	;' '
  1457  0A93  3425               	retlw	37	;'%'
  1458  0A94  3430               	retlw	48	;'0'
  1459  0A95  3432               	retlw	50	;'2'
  1460  0A96  3464               	retlw	100	;'d'
  1461  0A97  343A               	retlw	58	;':'
  1462  0A98  3425               	retlw	37	;'%'
  1463  0A99  3430               	retlw	48	;'0'
  1464  0A9A  3432               	retlw	50	;'2'
  1465  0A9B  3464               	retlw	100	;'d'
  1466  0A9C  343A               	retlw	58	;':'
  1467  0A9D  3425               	retlw	37	;'%'
  1468  0A9E  3430               	retlw	48	;'0'
  1469  0A9F  3432               	retlw	50	;'2'
  1470  0AA0  3464               	retlw	100	;'d'
  1471  0AA1  3400               	retlw	0
  1472  0AA2                     STR_3:	
  1473  0AA2  340D               	retlw	13
  1474  0AA3  340A               	retlw	10
  1475  0AA4  3420               	retlw	32	;' '
  1476  0AA5  3449               	retlw	73	;'I'
  1477  0AA6  346E               	retlw	110	;'n'
  1478  0AA7  3469               	retlw	105	;'i'
  1479  0AA8  3463               	retlw	99	;'c'
  1480  0AA9  3469               	retlw	105	;'i'
  1481  0AAA  346F               	retlw	111	;'o'
  1482  0AAB  3420               	retlw	32	;' '
  1483  0AAC  3464               	retlw	100	;'d'
  1484  0AAD  3465               	retlw	101	;'e'
  1485  0AAE  346C               	retlw	108	;'l'
  1486  0AAF  3420               	retlw	32	;' '
  1487  0AB0  3453               	retlw	83	;'S'
  1488  0AB1  3465               	retlw	101	;'e'
  1489  0AB2  3474               	retlw	116	;'t'
  1490  0AB3  3465               	retlw	101	;'e'
  1491  0AB4  346F               	retlw	111	;'o'
  1492  0AB5  3420               	retlw	32	;' '
  1493  0AB6  3464               	retlw	100	;'d'
  1494  0AB7  3465               	retlw	101	;'e'
  1495  0AB8  3420               	retlw	32	;' '
  1496  0AB9  3448               	retlw	72	;'H'
  1497  0ABA  346F               	retlw	111	;'o'
  1498  0ABB  3472               	retlw	114	;'r'
  1499  0ABC  3461               	retlw	97	;'a'
  1500  0ABD  3400               	retlw	0
  1501  0ABE                     STR_18:	
  1502  0ABE  340D               	retlw	13
  1503  0ABF  340A               	retlw	10
  1504  0AC0  3420               	retlw	32	;' '
  1505  0AC1  3453               	retlw	83	;'S'
  1506  0AC2  3465               	retlw	101	;'e'
  1507  0AC3  3474               	retlw	116	;'t'
  1508  0AC4  3465               	retlw	101	;'e'
  1509  0AC5  346F               	retlw	111	;'o'
  1510  0AC6  3420               	retlw	32	;' '
  1511  0AC7  3464               	retlw	100	;'d'
  1512  0AC8  3465               	retlw	101	;'e'
  1513  0AC9  3420               	retlw	32	;' '
  1514  0ACA  3448               	retlw	72	;'H'
  1515  0ACB  346F               	retlw	111	;'o'
  1516  0ACC  3472               	retlw	114	;'r'
  1517  0ACD  3461               	retlw	97	;'a'
  1518  0ACE  3420               	retlw	32	;' '
  1519  0ACF  3446               	retlw	70	;'F'
  1520  0AD0  3469               	retlw	105	;'i'
  1521  0AD1  346E               	retlw	110	;'n'
  1522  0AD2  3461               	retlw	97	;'a'
  1523  0AD3  346C               	retlw	108	;'l'
  1524  0AD4  3469               	retlw	105	;'i'
  1525  0AD5  347A               	retlw	122	;'z'
  1526  0AD6  3461               	retlw	97	;'a'
  1527  0AD7  3464               	retlw	100	;'d'
  1528  0AD8  346F               	retlw	111	;'o'
  1529  0AD9  3400               	retlw	0
  1530  0ADA                     STR_17:	
  1531  0ADA  340D               	retlw	13
  1532  0ADB  340A               	retlw	10
  1533  0ADC  3420               	retlw	32	;' '
  1534  0ADD  3445               	retlw	69	;'E'
  1535  0ADE  346C               	retlw	108	;'l'
  1536  0ADF  3420               	retlw	32	;' '
  1537  0AE0  3461               	retlw	97	;'a'
  1538  0AE1  34F1               	retlw	-15
  1539  0AE2  346F               	retlw	111	;'o'
  1540  0AE3  3420               	retlw	32	;' '
  1541  0AE4  3472               	retlw	114	;'r'
  1542  0AE5  3465               	retlw	101	;'e'
  1543  0AE6  3463               	retlw	99	;'c'
  1544  0AE7  3469               	retlw	105	;'i'
  1545  0AE8  3462               	retlw	98	;'b'
  1546  0AE9  3469               	retlw	105	;'i'
  1547  0AEA  3464               	retlw	100	;'d'
  1548  0AEB  346F               	retlw	111	;'o'
  1549  0AEC  3420               	retlw	32	;' '
  1550  0AED  3466               	retlw	102	;'f'
  1551  0AEE  3475               	retlw	117	;'u'
  1552  0AEF  3465               	retlw	101	;'e'
  1553  0AF0  3420               	retlw	32	;' '
  1554  0AF1  3425               	retlw	37	;'%'
  1555  0AF2  3478               	retlw	120	;'x'
  1556  0AF3  3400               	retlw	0
  1557  0AF4                     STR_22:	
  1558  0AF4  3430               	retlw	48	;'0'
  1559  0AF5  3431               	retlw	49	;'1'
  1560  0AF6  3432               	retlw	50	;'2'
  1561  0AF7  3433               	retlw	51	;'3'
  1562  0AF8  3434               	retlw	52	;'4'
  1563  0AF9  3435               	retlw	53	;'5'
  1564  0AFA  3436               	retlw	54	;'6'
  1565  0AFB  3437               	retlw	55	;'7'
  1566  0AFC  3438               	retlw	56	;'8'
  1567  0AFD  3439               	retlw	57	;'9'
  1568  0AFE  3461               	retlw	97	;'a'
  1569  0AFF  3462               	retlw	98	;'b'
  1570  0B00  3463               	retlw	99	;'c'
  1571  0B01  3464               	retlw	100	;'d'
  1572  0B02  3465               	retlw	101	;'e'
  1573  0B03  3466               	retlw	102	;'f'
  1574  0B04  3400               	retlw	0
  1575  0B05                     STR_19:	
  1576  0B05  3425               	retlw	37	;'%'
  1577  0B06  3463               	retlw	99	;'c'
  1578  0B07  3400               	retlw	0
  1579                           
  1580                           ; #config settings
  1581  0000                     
  1582                           	psect	cinit
  1583  07FD                     start_initialization:	
  1584  07FD                     __initialization:	
  1585  07FD                     end_of_initialization:	
  1586                           ;End of C runtime variable initialization code
  1587                           
  1588  07FD                     __end_of__initialization:	
  1589  07FD  0020               	movlb	0
  1590  07FE  3184  2C41         	ljmp	_main	;jump to C main() function
  1591                           
  1592                           	psect	cstackCOMMON
  1593  0070                     __pcstackCOMMON:	
  1594  0070                     ?_isdigit:	
  1595  0070                     ?_EUSART_Read:	
  1596                           ; 1 bit 
  1597                           
  1598  0070                     ??_EUSART_Read:	
  1599                           ; 1 bytes @ 0x0
  1600                           
  1601  0070                     ?_SYSTEM_Initialize:	
  1602                           ; 1 bytes @ 0x0
  1603                           
  1604  0070                     ??_SYSTEM_Initialize:	
  1605                           ; 1 bytes @ 0x0
  1606                           
  1607  0070                     ?_PIN_MANAGER_Initialize:	
  1608                           ; 1 bytes @ 0x0
  1609                           
  1610  0070                     ??_PIN_MANAGER_Initialize:	
  1611                           ; 1 bytes @ 0x0
  1612                           
  1613  0070                     ?_OSCILLATOR_Initialize:	
  1614                           ; 1 bytes @ 0x0
  1615                           
  1616  0070                     ??_OSCILLATOR_Initialize:	
  1617                           ; 1 bytes @ 0x0
  1618                           
  1619  0070                     ??_isdigit:	
  1620                           ; 1 bytes @ 0x0
  1621                           
  1622  0070                     ?_i2c_iniciar:	
  1623                           ; 1 bytes @ 0x0
  1624                           
  1625  0070                     ??_i2c_iniciar:	
  1626                           ; 1 bytes @ 0x0
  1627                           
  1628  0070                     ?_i2c_espera:	
  1629                           ; 1 bytes @ 0x0
  1630                           
  1631  0070                     ??_i2c_espera:	
  1632                           ; 1 bytes @ 0x0
  1633                           
  1634  0070                     ?_i2c_inicia_com:	
  1635                           ; 1 bytes @ 0x0
  1636                           
  1637  0070                     ??_i2c_inicia_com:	
  1638                           ; 1 bytes @ 0x0
  1639                           
  1640  0070                     ?_i2c_reinicia_com:	
  1641                           ; 1 bytes @ 0x0
  1642                           
  1643  0070                     ??_i2c_reinicia_com:	
  1644                           ; 1 bytes @ 0x0
  1645                           
  1646  0070                     ?_i2c_detener:	
  1647                           ; 1 bytes @ 0x0
  1648                           
  1649  0070                     ??_i2c_detener:	
  1650                           ; 1 bytes @ 0x0
  1651                           
  1652  0070                     ?_i2c_envia_dato:	
  1653                           ; 1 bytes @ 0x0
  1654                           
  1655  0070                     ??_i2c_envia_dato:	
  1656                           ; 1 bytes @ 0x0
  1657                           
  1658  0070                     ?_i2c_recibe_dato:	
  1659                           ; 1 bytes @ 0x0
  1660                           
  1661  0070                     ??_i2c_recibe_dato:	
  1662                           ; 1 bytes @ 0x0
  1663                           
  1664  0070                     ?_leer_rtc:	
  1665                           ; 1 bytes @ 0x0
  1666                           
  1667  0070                     ?_setReloj:	
  1668                           ; 1 bytes @ 0x0
  1669                           
  1670  0070                     ?_convertirDato:	
  1671                           ; 1 bytes @ 0x0
  1672                           
  1673  0070                     ?_main:	
  1674                           ; 1 bytes @ 0x0
  1675                           
  1676  0070                     ?_EUSART_Initialize:	
  1677                           ; 1 bytes @ 0x0
  1678                           
  1679  0070                     ??_EUSART_Initialize:	
  1680                           ; 1 bytes @ 0x0
  1681                           
  1682  0070                     ?_EUSART_Write:	
  1683                           ; 1 bytes @ 0x0
  1684                           
  1685  0070                     ??_EUSART_Write:	
  1686                           ; 1 bytes @ 0x0
  1687                           
  1688  0070                     ?_putch:	
  1689                           ; 1 bytes @ 0x0
  1690                           
  1691  0070                     ?___bmul:	
  1692                           ; 1 bytes @ 0x0
  1693                           
  1694  0070                     ?___wmul:	
  1695                           ; 1 bytes @ 0x0
  1696                           
  1697  0070                     ?___lwdiv:	
  1698                           ; 2 bytes @ 0x0
  1699                           
  1700  0070                     i2c_envia_dato@dato:	
  1701                           ; 2 bytes @ 0x0
  1702                           
  1703  0070                     EUSART_Write@txData:	
  1704                           ; 1 bytes @ 0x0
  1705                           
  1706  0070                     ___bmul@multiplicand:	
  1707                           ; 1 bytes @ 0x0
  1708                           
  1709  0070                     _isdigit$596:	
  1710                           ; 1 bytes @ 0x0
  1711                           
  1712  0070                     ___wmul@multiplier:	
  1713                           ; 1 bytes @ 0x0
  1714                           
  1715  0070                     ___lwdiv@divisor:	
  1716                           ; 2 bytes @ 0x0
  1717                           
  1718                           
  1719                           ; 2 bytes @ 0x0
  1720  0070                     	ds	1
  1721  0071                     ?_escribe_rtc:	
  1722  0071                     ??_putch:	
  1723                           ; 1 bytes @ 0x1
  1724                           
  1725  0071                     ??___bmul:	
  1726                           ; 1 bytes @ 0x1
  1727                           
  1728  0071                     i2c_recibe_dato@datoleido:	
  1729                           ; 1 bytes @ 0x1
  1730                           
  1731  0071                     escribe_rtc@dato:	
  1732                           ; 1 bytes @ 0x1
  1733                           
  1734  0071                     putch@txData:	
  1735                           ; 1 bytes @ 0x1
  1736                           
  1737  0071                     isdigit@c:	
  1738                           ; 1 bytes @ 0x1
  1739                           
  1740                           
  1741                           ; 1 bytes @ 0x1
  1742  0071                     	ds	1
  1743  0072                     ??_escribe_rtc:	
  1744  0072                     ??_leer_rtc:	
  1745                           ; 1 bytes @ 0x2
  1746                           
  1747  0072                     escribe_rtc@direccion:	
  1748                           ; 1 bytes @ 0x2
  1749                           
  1750  0072                     ___bmul@product:	
  1751                           ; 1 bytes @ 0x2
  1752                           
  1753  0072                     ___wmul@multiplicand:	
  1754                           ; 1 bytes @ 0x2
  1755                           
  1756  0072                     ___lwdiv@dividend:	
  1757                           ; 2 bytes @ 0x2
  1758                           
  1759                           
  1760                           ; 2 bytes @ 0x2
  1761  0072                     	ds	1
  1762  0073                     leer_rtc@direccion:	
  1763  0073                     ___bmul@multiplier:	
  1764                           ; 1 bytes @ 0x3
  1765                           
  1766                           
  1767                           ; 1 bytes @ 0x3
  1768  0073                     	ds	1
  1769  0074                     ??_convertirDato:	
  1770  0074                     ??___wmul:	
  1771                           ; 1 bytes @ 0x4
  1772                           
  1773  0074                     ??___lwdiv:	
  1774                           ; 1 bytes @ 0x4
  1775                           
  1776  0074                     leer_rtc@dato:	
  1777                           ; 1 bytes @ 0x4
  1778                           
  1779  0074                     ___wmul@product:	
  1780                           ; 1 bytes @ 0x4
  1781                           
  1782                           
  1783                           ; 2 bytes @ 0x4
  1784  0074                     	ds	1
  1785  0075                     ___lwdiv@quotient:	
  1786                           
  1787                           ; 2 bytes @ 0x5
  1788  0075                     	ds	2
  1789  0077                     convertirDato@dato:	
  1790  0077                     ___lwdiv@counter:	
  1791                           ; 1 bytes @ 0x7
  1792                           
  1793                           
  1794                           ; 1 bytes @ 0x7
  1795  0077                     	ds	1
  1796  0078                     ?___lwmod:	
  1797  0078                     convertirDato@datoR:	
  1798                           ; 2 bytes @ 0x8
  1799                           
  1800  0078                     ___lwmod@divisor:	
  1801                           ; 1 bytes @ 0x8
  1802                           
  1803                           
  1804                           ; 2 bytes @ 0x8
  1805  0078                     	ds	2
  1806  007A                     ___lwmod@dividend:	
  1807                           
  1808                           ; 2 bytes @ 0xA
  1809  007A                     	ds	2
  1810  007C                     ??___lwmod:	
  1811                           
  1812                           ; 1 bytes @ 0xC
  1813  007C                     	ds	1
  1814  007D                     ___lwmod@counter:	
  1815                           
  1816                           ; 1 bytes @ 0xD
  1817  007D                     	ds	1
  1818                           
  1819                           	psect	cstackBANK0
  1820  0020                     __pcstackBANK0:	
  1821  0020                     ?_printf:	
  1822  0020                     printf@f:	
  1823                           ; 2 bytes @ 0x0
  1824                           
  1825                           
  1826                           ; 2 bytes @ 0x0
  1827  0020                     	ds	8
  1828  0028                     ??_printf:	
  1829                           
  1830                           ; 1 bytes @ 0x8
  1831  0028                     	ds	4
  1832  002C                     printf@idx:	
  1833                           
  1834                           ; 1 bytes @ 0xC
  1835  002C                     	ds	1
  1836  002D                     printf@cp:	
  1837                           
  1838                           ; 1 bytes @ 0xD
  1839  002D                     	ds	1
  1840  002E                     printf@len:	
  1841                           
  1842                           ; 2 bytes @ 0xE
  1843  002E                     	ds	2
  1844  0030                     printf@prec:	
  1845                           
  1846                           ; 1 bytes @ 0x10
  1847  0030                     	ds	1
  1848  0031                     printf@ap:	
  1849                           
  1850                           ; 1 bytes @ 0x11
  1851  0031                     	ds	1
  1852  0032                     printf@val:	
  1853                           
  1854                           ; 2 bytes @ 0x12
  1855  0032                     	ds	2
  1856  0034                     printf@flag:	
  1857                           
  1858                           ; 1 bytes @ 0x14
  1859  0034                     	ds	1
  1860  0035                     printf@width:	
  1861                           
  1862                           ; 2 bytes @ 0x15
  1863  0035                     	ds	2
  1864  0037                     printf@c:	
  1865                           
  1866                           ; 1 bytes @ 0x17
  1867  0037                     	ds	1
  1868  0038                     ??_setReloj:	
  1869                           
  1870                           ; 1 bytes @ 0x18
  1871  0038                     	ds	2
  1872  003A                     setReloj@direccion:	
  1873                           
  1874                           ; 1 bytes @ 0x1A
  1875  003A                     	ds	1
  1876  003B                     setReloj@dato:	
  1877                           
  1878                           ; 1 bytes @ 0x1B
  1879  003B                     	ds	1
  1880  003C                     setReloj@i:	
  1881                           
  1882                           ; 2 bytes @ 0x1C
  1883  003C                     	ds	2
  1884  003E                     setReloj@Rx:	
  1885                           
  1886                           ; 1 bytes @ 0x1E
  1887  003E                     	ds	1
  1888  003F                     ??_main:	
  1889                           
  1890                           ; 1 bytes @ 0x1F
  1891  003F                     	ds	6
  1892  0045                     main@segundos:	
  1893                           
  1894                           ; 1 bytes @ 0x25
  1895  0045                     	ds	1
  1896  0046                     main@minutos:	
  1897                           
  1898                           ; 1 bytes @ 0x26
  1899  0046                     	ds	1
  1900  0047                     main@horas:	
  1901                           
  1902                           ; 1 bytes @ 0x27
  1903  0047                     	ds	1
  1904  0048                     main@dia:	
  1905                           
  1906                           ; 1 bytes @ 0x28
  1907  0048                     	ds	1
  1908  0049                     main@mes:	
  1909                           
  1910                           ; 1 bytes @ 0x29
  1911  0049                     	ds	1
  1912  004A                     main@anio:	
  1913                           
  1914                           ; 1 bytes @ 0x2A
  1915  004A                     	ds	1
  1916  004B                     main@escape:	
  1917                           
  1918                           ; 1 bytes @ 0x2B
  1919  004B                     	ds	1
  1920  004C                     main@dato:	
  1921                           
  1922                           ; 1 bytes @ 0x2C
  1923  004C                     	ds	1
  1924                           
  1925                           	psect	maintext
  1926  0441                     __pmaintext:	
  1927 ;;
  1928 ;;Main: autosize = 0, tempsize = 6, incstack = 0, save=0
  1929 ;;
  1930 ;; *************** function _main *****************
  1931 ;; Defined at:
  1932 ;;		line 68 in file "main.c"
  1933 ;; Parameters:    Size  Location     Type
  1934 ;;		None
  1935 ;; Auto vars:     Size  Location     Type
  1936 ;;  dato            1   44[BANK0 ] unsigned char 
  1937 ;;  escape          1   43[BANK0 ] unsigned char 
  1938 ;;  anio            1   42[BANK0 ] unsigned char 
  1939 ;;  mes             1   41[BANK0 ] unsigned char 
  1940 ;;  dia             1   40[BANK0 ] unsigned char 
  1941 ;;  horas           1   39[BANK0 ] unsigned char 
  1942 ;;  minutos         1   38[BANK0 ] unsigned char 
  1943 ;;  segundos        1   37[BANK0 ] unsigned char 
  1944 ;; Return value:  Size  Location     Type
  1945 ;;                  1    wreg      void 
  1946 ;; Registers used:
  1947 ;;		wreg, fsr0l, fsr0h, fsr1l, fsr1h, status,2, status,0, pclath, cstack
  1948 ;; Tracked objects:
  1949 ;;		On entry : B1F/0
  1950 ;;		On exit  : 0/0
  1951 ;;		Unchanged: 0/0
  1952 ;; Data sizes:     COMMON   BANK0   BANK1   BANK2   BANK3   BANK4   BANK5   BANK6
  1953 ;;      Params:         0       0       0       0       0       0       0       0
  1954 ;;      Locals:         0       8       0       0       0       0       0       0
  1955 ;;      Temps:          0       6       0       0       0       0       0       0
  1956 ;;      Totals:         0      14       0       0       0       0       0       0
  1957 ;;Total ram usage:       14 bytes
  1958 ;; Hardware stack levels required when called:    4
  1959 ;; This function calls:
  1960 ;;		_SYSTEM_Initialize
  1961 ;;		_convertirDato
  1962 ;;		_i2c_iniciar
  1963 ;;		_leer_rtc
  1964 ;;		_printf
  1965 ;;		_setReloj
  1966 ;; This function is called by:
  1967 ;;		Startup code after reset
  1968 ;; This function uses a non-reentrant model
  1969 ;;
  1970                           
  1971                           
  1972                           ;psect for function _main
  1973  0441                     _main:	
  1974                           
  1975                           ;main.c: 70: SYSTEM_Initialize();
  1976                           
  1977                           ;incstack = 0
  1978                           ; Regs used in _main: [wreg-fsr1h+status,2+status,0+pclath+cstack]
  1979  0441  3182  228E  3184   	fcall	_SYSTEM_Initialize
  1980                           
  1981                           ;main.c: 86: i2c_iniciar();
  1982  0444  3182  22A2  3184   	fcall	_i2c_iniciar
  1983  0447                     l1573:	
  1984                           ;main.c: 87: unsigned char segundos;
  1985                           ;main.c: 88: unsigned char minutos;
  1986                           ;main.c: 89: unsigned char horas;
  1987                           ;main.c: 90: unsigned char dia;
  1988                           ;main.c: 91: unsigned char mes;
  1989                           ;main.c: 92: unsigned char anio;
  1990                           ;main.c: 93: while (1) {
  1991                           
  1992                           
  1993                           ;main.c: 94: if (!PORTBbits.RB0) {
  1994  0447  0020               	movlb	0	; select bank0
  1995  0448  180D               	btfsc	13,0	;volatile
  1996  0449  2D3E               	goto	l1625
  1997                           
  1998                           ;main.c: 95: _delay((unsigned long)((20)*(20000000/4000.0)));
  1999  044A  3082               	movlw	130
  2000  044B  00C0               	movwf	??_main+1
  2001  044C  30DD               	movlw	221
  2002  044D  00BF               	movwf	??_main
  2003  044E                     u1237:	
  2004  044E  0BBF               	decfsz	??_main,f
  2005  044F  2C4E               	goto	u1237
  2006  0450  0BC0               	decfsz	??_main+1,f
  2007  0451  2C4E               	goto	u1237
  2008  0452  3200               	nop2
  2009  0453                     l75:	
  2010                           ;main.c: 96: while (!PORTBbits.RB0);
  2011                           
  2012  0453  0020               	movlb	0	; select bank0
  2013  0454  1C0D               	btfss	13,0	;volatile
  2014  0455  2C53               	goto	l75
  2015                           
  2016                           ;main.c: 97: LATDbits.LATD4 = 1;
  2017  0456  0022               	movlb	2	; select bank2
  2018  0457  160F               	bsf	15,4	;volatile
  2019                           
  2020                           ;main.c: 98: printf("\r\n Inicio del Seteo de Hora");
  2021  0458  30A2               	movlw	low (STR_3| (0+32768))
  2022  0459  0020               	movlb	0	; select bank0
  2023  045A  00A0               	movwf	printf@f
  2024  045B  308A               	movlw	high (STR_3| (0+32768))
  2025  045C  00A1               	movwf	printf@f+1
  2026  045D  3185  25E9  3184   	fcall	_printf
  2027                           
  2028                           ;main.c: 99: printf("\r\n Envie los segundos Ej: 13 \r\n");
  2029  0460  3005               	movlw	low (STR_4| (0+32768))
  2030  0461  0020               	movlb	0	; select bank0
  2031  0462  00A0               	movwf	printf@f
  2032  0463  308A               	movlw	high (STR_4| (0+32768))
  2033  0464  00A1               	movwf	printf@f+1
  2034  0465  3185  25E9  3184   	fcall	_printf
  2035                           
  2036                           ;main.c: 100: unsigned char dato = 0;
  2037  0468  0020               	movlb	0	; select bank0
  2038  0469  01CC               	clrf	main@dato
  2039                           
  2040                           ;main.c: 101: dato = setReloj(0x00);
  2041  046A  3000               	movlw	0
  2042  046B  3183  23DC  3184   	fcall	_setReloj
  2043  046E  0020               	movlb	0	; select bank0
  2044  046F  00BF               	movwf	??_main
  2045  0470  083F               	movf	??_main,w
  2046  0471  00CC               	movwf	main@dato
  2047                           
  2048                           ;main.c: 102: printf("\r\n Los segundos recibidos fueron %x", dato);
  2049  0472  3059               	movlw	low (STR_5| (0+32768))
  2050  0473  00A0               	movwf	printf@f
  2051  0474  3089               	movlw	high (STR_5| (0+32768))
  2052  0475  00A1               	movwf	printf@f+1
  2053  0476  084C               	movf	main@dato,w
  2054  0477  00BF               	movwf	??_main
  2055  0478  01C0               	clrf	??_main+1
  2056  0479  083F               	movf	??_main,w
  2057  047A  00A2               	movwf	?_printf+2
  2058  047B  0840               	movf	??_main+1,w
  2059  047C  00A3               	movwf	?_printf+3
  2060  047D  3185  25E9  3184   	fcall	_printf
  2061                           
  2062                           ;main.c: 104: printf("\r\n Envie los Minutos Ej: 25 \r\n");
  2063  0480  3045               	movlw	low (STR_6| (0+32768))
  2064  0481  0020               	movlb	0	; select bank0
  2065  0482  00A0               	movwf	printf@f
  2066  0483  308A               	movlw	high (STR_6| (0+32768))
  2067  0484  00A1               	movwf	printf@f+1
  2068  0485  3185  25E9  3184   	fcall	_printf
  2069                           
  2070                           ;main.c: 105: dato = setReloj(0x01);
  2071  0488  3001               	movlw	1
  2072  0489  3183  23DC  3184   	fcall	_setReloj
  2073  048C  0020               	movlb	0	; select bank0
  2074  048D  00BF               	movwf	??_main
  2075  048E  083F               	movf	??_main,w
  2076  048F  00CC               	movwf	main@dato
  2077                           
  2078                           ;main.c: 106: printf("\r\n Los Minutos recibidos fueron %x", dato);
  2079  0490  307D               	movlw	low (STR_7| (0+32768))
  2080  0491  00A0               	movwf	printf@f
  2081  0492  3089               	movlw	high (STR_7| (0+32768))
  2082  0493  00A1               	movwf	printf@f+1
  2083  0494  084C               	movf	main@dato,w
  2084  0495  00BF               	movwf	??_main
  2085  0496  01C0               	clrf	??_main+1
  2086  0497  083F               	movf	??_main,w
  2087  0498  00A2               	movwf	?_printf+2
  2088  0499  0840               	movf	??_main+1,w
  2089  049A  00A3               	movwf	?_printf+3
  2090  049B  3185  25E9  3184   	fcall	_printf
  2091                           
  2092                           ;main.c: 108: printf("\r\n Envie las Horas en formato 24 Ej: 15 \r\n");
  2093  049E  30BD               	movlw	low (STR_8| (0+32768))
  2094  049F  0020               	movlb	0	; select bank0
  2095  04A0  00A0               	movwf	printf@f
  2096  04A1  3088               	movlw	high (STR_8| (0+32768))
  2097  04A2  00A1               	movwf	printf@f+1
  2098  04A3  3185  25E9  3184   	fcall	_printf
  2099                           
  2100                           ;main.c: 109: dato = setReloj(0x02);
  2101  04A6  3002               	movlw	2
  2102  04A7  3183  23DC  3184   	fcall	_setReloj
  2103  04AA  0020               	movlb	0	; select bank0
  2104  04AB  00BF               	movwf	??_main
  2105  04AC  083F               	movf	??_main,w
  2106  04AD  00CC               	movwf	main@dato
  2107                           
  2108                           ;main.c: 110: printf("\r\n Las Horas recibidas fueron %x", dato);
  2109  04AE  30E4               	movlw	low (STR_9| (0+32768))
  2110  04AF  00A0               	movwf	printf@f
  2111  04B0  3089               	movlw	high (STR_9| (0+32768))
  2112  04B1  00A1               	movwf	printf@f+1
  2113  04B2  084C               	movf	main@dato,w
  2114  04B3  00BF               	movwf	??_main
  2115  04B4  01C0               	clrf	??_main+1
  2116  04B5  083F               	movf	??_main,w
  2117  04B6  00A2               	movwf	?_printf+2
  2118  04B7  0840               	movf	??_main+1,w
  2119  04B8  00A3               	movwf	?_printf+3
  2120  04B9  3185  25E9  3184   	fcall	_printf
  2121                           
  2122                           ;main.c: 112: printf("\r\n Envie el dia de la semana siendo domingo 01 y Sabado 07. Ej M
      +                          artes= 03 \r\n");
  2123  04BC  3012               	movlw	low (STR_10| (0+32768))
  2124  04BD  0020               	movlb	0	; select bank0
  2125  04BE  00A0               	movwf	printf@f
  2126  04BF  3088               	movlw	high (STR_10| (0+32768))
  2127  04C0  00A1               	movwf	printf@f+1
  2128  04C1  3185  25E9  3184   	fcall	_printf
  2129                           
  2130                           ;main.c: 113: dato = setReloj(0x03);
  2131  04C4  3003               	movlw	3
  2132  04C5  3183  23DC  3184   	fcall	_setReloj
  2133  04C8  0020               	movlb	0	; select bank0
  2134  04C9  00BF               	movwf	??_main
  2135  04CA  083F               	movf	??_main,w
  2136  04CB  00CC               	movwf	main@dato
  2137                           
  2138                           ;main.c: 114: printf("\r\n El dia de la semana recibido fue %x", dato);
  2139  04CC  30E8               	movlw	low (STR_11| (0+32768))
  2140  04CD  00A0               	movwf	printf@f
  2141  04CE  3088               	movlw	high (STR_11| (0+32768))
  2142  04CF  00A1               	movwf	printf@f+1
  2143  04D0  084C               	movf	main@dato,w
  2144  04D1  00BF               	movwf	??_main
  2145  04D2  01C0               	clrf	??_main+1
  2146  04D3  083F               	movf	??_main,w
  2147  04D4  00A2               	movwf	?_printf+2
  2148  04D5  0840               	movf	??_main+1,w
  2149  04D6  00A3               	movwf	?_printf+3
  2150  04D7  3185  25E9  3184   	fcall	_printf
  2151                           
  2152                           ;main.c: 116: printf("\r\n Envie el dia del mes. Ej 28 \r\n");
  2153  04DA  30A0               	movlw	low (STR_12| (0+32768))
  2154  04DB  0020               	movlb	0	; select bank0
  2155  04DC  00A0               	movwf	printf@f
  2156  04DD  3089               	movlw	high (STR_12| (0+32768))
  2157  04DE  00A1               	movwf	printf@f+1
  2158  04DF  3185  25E9  3184   	fcall	_printf
  2159                           
  2160                           ;main.c: 117: dato = setReloj(0x04);
  2161  04E2  3004               	movlw	4
  2162  04E3  3183  23DC  3184   	fcall	_setReloj
  2163  04E6  0020               	movlb	0	; select bank0
  2164  04E7  00BF               	movwf	??_main
  2165  04E8  083F               	movf	??_main,w
  2166  04E9  00CC               	movwf	main@dato
  2167                           
  2168                           ;main.c: 118: printf("\r\n El dia del mes recibido fue %x", dato);
  2169  04EA  30C2               	movlw	low (STR_13| (0+32768))
  2170  04EB  00A0               	movwf	printf@f
  2171  04EC  3089               	movlw	high (STR_13| (0+32768))
  2172  04ED  00A1               	movwf	printf@f+1
  2173  04EE  084C               	movf	main@dato,w
  2174  04EF  00BF               	movwf	??_main
  2175  04F0  01C0               	clrf	??_main+1
  2176  04F1  083F               	movf	??_main,w
  2177  04F2  00A2               	movwf	?_printf+2
  2178  04F3  0840               	movf	??_main+1,w
  2179  04F4  00A3               	movwf	?_printf+3
  2180  04F5  3185  25E9  3184   	fcall	_printf
  2181                           
  2182                           ;main.c: 120: printf("\r\n Envie el numero del mes. Ej 05 para mayo \r\n");
  2183  04F8  308E               	movlw	low (STR_14| (0+32768))
  2184  04F9  0020               	movlb	0	; select bank0
  2185  04FA  00A0               	movwf	printf@f
  2186  04FB  3088               	movlw	high (STR_14| (0+32768))
  2187  04FC  00A1               	movwf	printf@f+1
  2188  04FD  3185  25E9  3184   	fcall	_printf
  2189                           
  2190                           ;main.c: 121: dato = setReloj(0x05);
  2191  0500  3005               	movlw	5
  2192  0501  3183  23DC  3184   	fcall	_setReloj
  2193  0504  0020               	movlb	0	; select bank0
  2194  0505  00BF               	movwf	??_main
  2195  0506  083F               	movf	??_main,w
  2196  0507  00CC               	movwf	main@dato
  2197                           
  2198                           ;main.c: 122: printf("\r\n El Numero del mes recibido fue %x", dato);
  2199  0508  3034               	movlw	low (STR_15| (0+32768))
  2200  0509  00A0               	movwf	printf@f
  2201  050A  3089               	movlw	high (STR_15| (0+32768))
  2202  050B  00A1               	movwf	printf@f+1
  2203  050C  084C               	movf	main@dato,w
  2204  050D  00BF               	movwf	??_main
  2205  050E  01C0               	clrf	??_main+1
  2206  050F  083F               	movf	??_main,w
  2207  0510  00A2               	movwf	?_printf+2
  2208  0511  0840               	movf	??_main+1,w
  2209  0512  00A3               	movwf	?_printf+3
  2210  0513  3185  25E9  3184   	fcall	_printf
  2211                           
  2212                           ;main.c: 124: printf("\r\n Envie el numero del ao. Ej 16 para 2016 \r\n");
  2213  0516  305F               	movlw	low (STR_16| (0+32768))
  2214  0517  0020               	movlb	0	; select bank0
  2215  0518  00A0               	movwf	printf@f
  2216  0519  3088               	movlw	high (STR_16| (0+32768))
  2217  051A  00A1               	movwf	printf@f+1
  2218  051B  3185  25E9  3184   	fcall	_printf
  2219                           
  2220                           ;main.c: 125: dato = setReloj(0x06);
  2221  051E  3006               	movlw	6
  2222  051F  3183  23DC  3184   	fcall	_setReloj
  2223  0522  0020               	movlb	0	; select bank0
  2224  0523  00BF               	movwf	??_main
  2225  0524  083F               	movf	??_main,w
  2226  0525  00CC               	movwf	main@dato
  2227                           
  2228                           ;main.c: 126: printf("\r\n El ao recibido fue %x", dato);
  2229  0526  30DA               	movlw	low (STR_17| (0+32768))
  2230  0527  00A0               	movwf	printf@f
  2231  0528  308A               	movlw	high (STR_17| (0+32768))
  2232  0529  00A1               	movwf	printf@f+1
  2233  052A  084C               	movf	main@dato,w
  2234  052B  00BF               	movwf	??_main
  2235  052C  01C0               	clrf	??_main+1
  2236  052D  083F               	movf	??_main,w
  2237  052E  00A2               	movwf	?_printf+2
  2238  052F  0840               	movf	??_main+1,w
  2239  0530  00A3               	movwf	?_printf+3
  2240  0531  3185  25E9  3184   	fcall	_printf
  2241                           
  2242                           ;main.c: 127: LATDbits.LATD4 = 0;
  2243  0534  0022               	movlb	2	; select bank2
  2244  0535  120F               	bcf	15,4	;volatile
  2245                           
  2246                           ;main.c: 128: printf("\r\n Seteo de Hora Finalizado");
  2247  0536  30BE               	movlw	low (STR_18| (0+32768))
  2248  0537  0020               	movlb	0	; select bank0
  2249  0538  00A0               	movwf	printf@f
  2250  0539  308A               	movlw	high (STR_18| (0+32768))
  2251  053A  00A1               	movwf	printf@f+1
  2252  053B  3185  25E9  3184   	fcall	_printf
  2253  053E                     l1625:	
  2254                           
  2255                           ;main.c: 129: }
  2256                           ;main.c: 130: unsigned char escape = 27;
  2257  053E  301B               	movlw	27
  2258  053F  0020               	movlb	0	; select bank0
  2259  0540  00BF               	movwf	??_main
  2260  0541  083F               	movf	??_main,w
  2261  0542  00CB               	movwf	main@escape
  2262                           
  2263                           ;main.c: 131: segundos = convertirDato(leer_rtc(0x00));
  2264  0543  3000               	movlw	0
  2265  0544  3183  2338  3184   	fcall	_leer_rtc
  2266  0547  3183  231B  3184   	fcall	_convertirDato
  2267  054A  0020               	movlb	0	; select bank0
  2268  054B  00BF               	movwf	??_main
  2269  054C  083F               	movf	??_main,w
  2270  054D  00C5               	movwf	main@segundos
  2271                           
  2272                           ;main.c: 132: minutos = convertirDato(leer_rtc(0x01));
  2273  054E  3001               	movlw	1
  2274  054F  3183  2338  3184   	fcall	_leer_rtc
  2275  0552  3183  231B  3184   	fcall	_convertirDato
  2276  0555  0020               	movlb	0	; select bank0
  2277  0556  00BF               	movwf	??_main
  2278  0557  083F               	movf	??_main,w
  2279  0558  00C6               	movwf	main@minutos
  2280                           
  2281                           ;main.c: 133: horas = convertirDato(leer_rtc(0x02));
  2282  0559  3002               	movlw	2
  2283  055A  3183  2338  3184   	fcall	_leer_rtc
  2284  055D  3183  231B  3184   	fcall	_convertirDato
  2285  0560  0020               	movlb	0	; select bank0
  2286  0561  00BF               	movwf	??_main
  2287  0562  083F               	movf	??_main,w
  2288  0563  00C7               	movwf	main@horas
  2289                           
  2290                           ;main.c: 134: dia = convertirDato(leer_rtc(0x04));
  2291  0564  3004               	movlw	4
  2292  0565  3183  2338  3184   	fcall	_leer_rtc
  2293  0568  3183  231B  3184   	fcall	_convertirDato
  2294  056B  0020               	movlb	0	; select bank0
  2295  056C  00BF               	movwf	??_main
  2296  056D  083F               	movf	??_main,w
  2297  056E  00C8               	movwf	main@dia
  2298                           
  2299                           ;main.c: 135: mes = convertirDato(leer_rtc(0x05));
  2300  056F  3005               	movlw	5
  2301  0570  3183  2338  3184   	fcall	_leer_rtc
  2302  0573  3183  231B  3184   	fcall	_convertirDato
  2303  0576  0020               	movlb	0	; select bank0
  2304  0577  00BF               	movwf	??_main
  2305  0578  083F               	movf	??_main,w
  2306  0579  00C9               	movwf	main@mes
  2307                           
  2308                           ;main.c: 136: anio = convertirDato(leer_rtc(0x06));
  2309  057A  3006               	movlw	6
  2310  057B  3183  2338  3184   	fcall	_leer_rtc
  2311  057E  3183  231B  3184   	fcall	_convertirDato
  2312  0581  0020               	movlb	0	; select bank0
  2313  0582  00BF               	movwf	??_main
  2314  0583  083F               	movf	??_main,w
  2315  0584  00CA               	movwf	main@anio
  2316                           
  2317                           ;main.c: 137: printf("%c", escape);
  2318  0585  3005               	movlw	low (STR_19| (0+32768))
  2319  0586  00A0               	movwf	printf@f
  2320  0587  308B               	movlw	high (STR_19| (0+32768))
  2321  0588  00A1               	movwf	printf@f+1
  2322  0589  084B               	movf	main@escape,w
  2323  058A  00BF               	movwf	??_main
  2324  058B  01C0               	clrf	??_main+1
  2325  058C  083F               	movf	??_main,w
  2326  058D  00A2               	movwf	?_printf+2
  2327  058E  0840               	movf	??_main+1,w
  2328  058F  00A3               	movwf	?_printf+3
  2329  0590  3185  25E9  3184   	fcall	_printf
  2330                           
  2331                           ;main.c: 138: _delay((unsigned long)((80)*(20000000/4000.0)));
  2332  0593  3003               	movlw	3
  2333  0594  0020               	movlb	0	; select bank0
  2334  0595  00C1               	movwf	??_main+2
  2335  0596  3008               	movlw	8
  2336  0597  00C0               	movwf	??_main+1
  2337  0598  3078               	movlw	120
  2338  0599  00BF               	movwf	??_main
  2339  059A                     u1247:	
  2340  059A  0BBF               	decfsz	??_main,f
  2341  059B  2D9A               	goto	u1247
  2342  059C  0BC0               	decfsz	??_main+1,f
  2343  059D  2D9A               	goto	u1247
  2344  059E  0BC1               	decfsz	??_main+2,f
  2345  059F  2D9A               	goto	u1247
  2346                           
  2347                           ;main.c: 139: printf(" La Hora es:    %02d:%02d:%02d", horas, minutos, segundos);
  2348  05A0  3083               	movlw	low (STR_20| (0+32768))
  2349  05A1  0020               	movlb	0	; select bank0
  2350  05A2  00A0               	movwf	printf@f
  2351  05A3  308A               	movlw	high (STR_20| (0+32768))
  2352  05A4  00A1               	movwf	printf@f+1
  2353  05A5  0847               	movf	main@horas,w
  2354  05A6  00BF               	movwf	??_main
  2355  05A7  01C0               	clrf	??_main+1
  2356  05A8  083F               	movf	??_main,w
  2357  05A9  00A2               	movwf	?_printf+2
  2358  05AA  0840               	movf	??_main+1,w
  2359  05AB  00A3               	movwf	?_printf+3
  2360  05AC  0846               	movf	main@minutos,w
  2361  05AD  00C1               	movwf	??_main+2
  2362  05AE  01C2               	clrf	??_main+3
  2363  05AF  0841               	movf	??_main+2,w
  2364  05B0  00A4               	movwf	?_printf+4
  2365  05B1  0842               	movf	??_main+3,w
  2366  05B2  00A5               	movwf	?_printf+5
  2367  05B3  0845               	movf	main@segundos,w
  2368  05B4  00C3               	movwf	??_main+4
  2369  05B5  01C4               	clrf	??_main+5
  2370  05B6  0843               	movf	??_main+4,w
  2371  05B7  00A6               	movwf	?_printf+6
  2372  05B8  0844               	movf	??_main+5,w
  2373  05B9  00A7               	movwf	?_printf+7
  2374  05BA  3185  25E9  3184   	fcall	_printf
  2375                           
  2376                           ;main.c: 140: printf("\r\n La fecha es: %02d / %02d / 20%02d", dia, mes, anio);
  2377  05BD  300F               	movlw	low (STR_21| (0+32768))
  2378  05BE  0020               	movlb	0	; select bank0
  2379  05BF  00A0               	movwf	printf@f
  2380  05C0  3089               	movlw	high (STR_21| (0+32768))
  2381  05C1  00A1               	movwf	printf@f+1
  2382  05C2  0848               	movf	main@dia,w
  2383  05C3  00BF               	movwf	??_main
  2384  05C4  01C0               	clrf	??_main+1
  2385  05C5  083F               	movf	??_main,w
  2386  05C6  00A2               	movwf	?_printf+2
  2387  05C7  0840               	movf	??_main+1,w
  2388  05C8  00A3               	movwf	?_printf+3
  2389  05C9  0849               	movf	main@mes,w
  2390  05CA  00C1               	movwf	??_main+2
  2391  05CB  01C2               	clrf	??_main+3
  2392  05CC  0841               	movf	??_main+2,w
  2393  05CD  00A4               	movwf	?_printf+4
  2394  05CE  0842               	movf	??_main+3,w
  2395  05CF  00A5               	movwf	?_printf+5
  2396  05D0  084A               	movf	main@anio,w
  2397  05D1  00C3               	movwf	??_main+4
  2398  05D2  01C4               	clrf	??_main+5
  2399  05D3  0843               	movf	??_main+4,w
  2400  05D4  00A6               	movwf	?_printf+6
  2401  05D5  0844               	movf	??_main+5,w
  2402  05D6  00A7               	movwf	?_printf+7
  2403  05D7  3185  25E9  3184   	fcall	_printf
  2404                           
  2405                           ;main.c: 141: _delay((unsigned long)((900)*(20000000/4000.0)));
  2406  05DA  3017               	movlw	23
  2407  05DB  0020               	movlb	0	; select bank0
  2408  05DC  00C1               	movwf	??_main+2
  2409  05DD  30D5               	movlw	213
  2410  05DE  00C0               	movwf	??_main+1
  2411  05DF  302B               	movlw	43
  2412  05E0  00BF               	movwf	??_main
  2413  05E1                     u1257:	
  2414  05E1  0BBF               	decfsz	??_main,f
  2415  05E2  2DE1               	goto	u1257
  2416  05E3  0BC0               	decfsz	??_main+1,f
  2417  05E4  2DE1               	goto	u1257
  2418  05E5  0BC1               	decfsz	??_main+2,f
  2419  05E6  2DE1               	goto	u1257
  2420  05E7  0000               	nop
  2421  05E8  2C47               	goto	l1573
  2422  05E9                     __end_of_main:	
  2423                           
  2424                           	psect	text1
  2425  03DC                     __ptext1:	
  2426 ;; *************** function _setReloj *****************
  2427 ;; Defined at:
  2428 ;;		line 35 in file "main.c"
  2429 ;; Parameters:    Size  Location     Type
  2430 ;;  direccion       1    wreg     unsigned char 
  2431 ;; Auto vars:     Size  Location     Type
  2432 ;;  direccion       1   26[BANK0 ] unsigned char 
  2433 ;;  Rx              1   30[BANK0 ] unsigned char 
  2434 ;;  i               2   28[BANK0 ] int 
  2435 ;;  dato            1   27[BANK0 ] unsigned char 
  2436 ;; Return value:  Size  Location     Type
  2437 ;;                  1    wreg      unsigned char 
  2438 ;; Registers used:
  2439 ;;		wreg, fsr0l, fsr0h, fsr1l, fsr1h, status,2, status,0, pclath, cstack
  2440 ;; Tracked objects:
  2441 ;;		On entry : 0/0
  2442 ;;		On exit  : 0/0
  2443 ;;		Unchanged: 0/0
  2444 ;; Data sizes:     COMMON   BANK0   BANK1   BANK2   BANK3   BANK4   BANK5   BANK6
  2445 ;;      Params:         0       0       0       0       0       0       0       0
  2446 ;;      Locals:         0       5       0       0       0       0       0       0
  2447 ;;      Temps:          0       2       0       0       0       0       0       0
  2448 ;;      Totals:         0       7       0       0       0       0       0       0
  2449 ;;Total ram usage:        7 bytes
  2450 ;; Hardware stack levels used:    1
  2451 ;; Hardware stack levels required when called:    3
  2452 ;; This function calls:
  2453 ;;		_EUSART_Read
  2454 ;;		_escribe_rtc
  2455 ;;		_printf
  2456 ;; This function is called by:
  2457 ;;		_main
  2458 ;; This function uses a non-reentrant model
  2459 ;;
  2460                           
  2461                           
  2462                           ;psect for function _setReloj
  2463  03DC                     _setReloj:	
  2464                           
  2465                           ;incstack = 0
  2466                           ; Regs used in _setReloj: [wreg-fsr1h+status,2+status,0+pclath+cstack]
  2467                           ;setReloj@direccion stored from wreg
  2468  03DC  0020               	movlb	0	; select bank0
  2469  03DD  00BA               	movwf	setReloj@direccion
  2470                           
  2471                           ;main.c: 36: unsigned char dato;
  2472                           ;main.c: 37: for (int i = 0; i <= 1; i++) {
  2473  03DE  01BC               	clrf	setReloj@i
  2474  03DF  01BD               	clrf	setReloj@i+1
  2475  03E0  083D               	movf	setReloj@i+1,w
  2476  03E1  3A80               	xorlw	128
  2477  03E2  00B8               	movwf	??_setReloj
  2478  03E3  3080               	movlw	128
  2479  03E4  0238               	subwf	??_setReloj,w
  2480  03E5  1D03               	skipz
  2481  03E6  2BE9               	goto	u1145
  2482  03E7  3002               	movlw	2
  2483  03E8  023C               	subwf	setReloj@i,w
  2484  03E9                     u1145:	
  2485  03E9  1803               	btfsc	3,0
  2486  03EA  2C36               	goto	l1553
  2487  03EB                     l1535:	
  2488                           
  2489                           ;main.c: 38: char Rx = EUSART_Read();
  2490  03EB  3182  22AE  3183   	fcall	_EUSART_Read
  2491  03EE  0020               	movlb	0	; select bank0
  2492  03EF  00B8               	movwf	??_setReloj
  2493  03F0  0838               	movf	??_setReloj,w
  2494  03F1  00BE               	movwf	setReloj@Rx
  2495                           
  2496                           ;main.c: 39: if (Rx >= 48 && Rx <= 57) {
  2497  03F2  3030               	movlw	48
  2498  03F3  023E               	subwf	setReloj@Rx,w
  2499  03F4  1C03               	skipc
  2500  03F5  2C13               	goto	l1547
  2501  03F6  303A               	movlw	58
  2502  03F7  023E               	subwf	setReloj@Rx,w
  2503  03F8  1803               	skipnc
  2504  03F9  2C13               	goto	l1547
  2505                           
  2506                           ;main.c: 40: if (!i) {
  2507  03FA  083C               	movf	setReloj@i,w
  2508  03FB  043D               	iorwf	setReloj@i+1,w
  2509  03FC  1D03               	btfss	3,2
  2510  03FD  2C0C               	goto	l1545
  2511                           
  2512                           ;main.c: 41: dato = ((Rx - 48) & 0x0F) << 4;
  2513  03FE  083E               	movf	setReloj@Rx,w
  2514  03FF  3ED0               	addlw	208
  2515  0400  390F               	andlw	15
  2516  0401  00B8               	movwf	??_setReloj
  2517  0402  3003               	movlw	3
  2518  0403                     u1185:	
  2519  0403  35B8               	lslf	??_setReloj,f
  2520  0404  3EFF               	addlw	-1
  2521  0405  1D03               	skipz
  2522  0406  2C03               	goto	u1185
  2523  0407  3538               	lslf	??_setReloj,w
  2524  0408  00B9               	movwf	??_setReloj+1
  2525  0409  0839               	movf	??_setReloj+1,w
  2526  040A  00BB               	movwf	setReloj@dato
  2527                           
  2528                           ;main.c: 42: } else {
  2529  040B  2C26               	goto	l66
  2530  040C                     l1545:	
  2531                           
  2532                           ;main.c: 43: dato | = (Rx - 48) & 0x0F;
  2533  040C  083E               	movf	setReloj@Rx,w
  2534  040D  3ED0               	addlw	208
  2535  040E  390F               	andlw	15
  2536  040F  00B8               	movwf	??_setReloj
  2537  0410  0838               	movf	??_setReloj,w
  2538  0411  04BB               	iorwf	setReloj@dato,f
  2539                           
  2540                           ;main.c: 44: }
  2541                           ;main.c: 45: } else {
  2542  0412  2C26               	goto	l66
  2543  0413                     l1547:	
  2544                           
  2545                           ;main.c: 46: i = -1;
  2546  0413  30FF               	movlw	255
  2547  0414  00BC               	movwf	setReloj@i
  2548  0415  30FF               	movlw	255
  2549  0416  00BD               	movwf	setReloj@i+1
  2550                           
  2551                           ;main.c: 47: printf("\r\n Solo se permiten numeros \r\n");
  2552  0417  3064               	movlw	low (STR_1| (0+32768))
  2553  0418  00A0               	movwf	printf@f
  2554  0419  308A               	movlw	high (STR_1| (0+32768))
  2555  041A  00A1               	movwf	printf@f+1
  2556  041B  3185  25E9  3183   	fcall	_printf
  2557                           
  2558                           ;main.c: 48: printf("\r\n Vuelva a grabar los datos \r\n");
  2559  041E  3025               	movlw	low (STR_2| (0+32768))
  2560  041F  0020               	movlb	0	; select bank0
  2561  0420  00A0               	movwf	printf@f
  2562  0421  308A               	movlw	high (STR_2| (0+32768))
  2563  0422  00A1               	movwf	printf@f+1
  2564  0423  3185  25E9  3183   	fcall	_printf
  2565  0426                     l66:	
  2566  0426  3001               	movlw	1
  2567  0427  0020               	movlb	0	; select bank0
  2568  0428  07BC               	addwf	setReloj@i,f
  2569  0429  3000               	movlw	0
  2570  042A  3DBD               	addwfc	setReloj@i+1,f
  2571  042B  083D               	movf	setReloj@i+1,w
  2572  042C  3A80               	xorlw	128
  2573  042D  00B8               	movwf	??_setReloj
  2574  042E  3080               	movlw	128
  2575  042F  0238               	subwf	??_setReloj,w
  2576  0430  1D03               	skipz
  2577  0431  2C34               	goto	u1195
  2578  0432  3002               	movlw	2
  2579  0433  023C               	subwf	setReloj@i,w
  2580  0434                     u1195:	
  2581  0434  1C03               	skipc
  2582  0435  2BEB               	goto	l1535
  2583  0436                     l1553:	
  2584                           
  2585                           ;main.c: 49: }
  2586                           ;main.c: 50: }
  2587                           ;main.c: 51: escribe_rtc(direccion, dato);
  2588  0436  0020               	movlb	0	; select bank0
  2589  0437  083B               	movf	setReloj@dato,w
  2590  0438  00B8               	movwf	??_setReloj
  2591  0439  0838               	movf	??_setReloj,w
  2592  043A  00F1               	movwf	escribe_rtc@dato
  2593  043B  083A               	movf	setReloj@direccion,w
  2594  043C  3182  22D9         	fcall	_escribe_rtc
  2595                           
  2596                           ;main.c: 52: return dato;
  2597  043E  0020               	movlb	0	; select bank0
  2598  043F  083B               	movf	setReloj@dato,w
  2599  0440  0008               	return
  2600  0441                     __end_of_setReloj:	
  2601                           
  2602                           	psect	text2
  2603  05E9                     __ptext2:	
  2604 ;; *************** function _printf *****************
  2605 ;; Defined at:
  2606 ;;		line 464 in file "/Applications/microchip/xc8/v1.38/sources/common/doprnt.c"
  2607 ;; Parameters:    Size  Location     Type
  2608 ;;  f               2    0[BANK0 ] PTR const unsigned char 
  2609 ;;		 -> STR_21(37), STR_20(31), STR_19(3), STR_18(28), 
  2610 ;;		 -> STR_17(26), STR_16(47), STR_15(37), STR_14(47), 
  2611 ;;		 -> STR_13(34), STR_12(34), STR_11(39), STR_10(77), 
  2612 ;;		 -> STR_9(33), STR_8(43), STR_7(35), STR_6(31), 
  2613 ;;		 -> STR_5(36), STR_4(32), STR_3(28), STR_2(32), 
  2614 ;;		 -> STR_1(31), 
  2615 ;; Auto vars:     Size  Location     Type
  2616 ;;  idx             1   12[BANK0 ] unsigned char 
  2617 ;;  tmpval          4    0        struct .
  2618 ;;  width           2   21[BANK0 ] int 
  2619 ;;  val             2   18[BANK0 ] unsigned int 
  2620 ;;  len             2   14[BANK0 ] unsigned int 
  2621 ;;  c               1   23[BANK0 ] char 
  2622 ;;  flag            1   20[BANK0 ] unsigned char 
  2623 ;;  ap              1   17[BANK0 ] PTR void [1]
  2624 ;;		 -> ?_printf(2), 
  2625 ;;  prec            1   16[BANK0 ] char 
  2626 ;;  cp              1   13[BANK0 ] PTR const unsigned char 
  2627 ;;		 -> printf@c(1), 
  2628 ;; Return value:  Size  Location     Type
  2629 ;;                  2    0[BANK0 ] int 
  2630 ;; Registers used:
  2631 ;;		wreg, fsr0l, fsr0h, fsr1l, fsr1h, status,2, status,0, pclath, cstack
  2632 ;; Tracked objects:
  2633 ;;		On entry : 0/0
  2634 ;;		On exit  : 0/0
  2635 ;;		Unchanged: 0/0
  2636 ;; Data sizes:     COMMON   BANK0   BANK1   BANK2   BANK3   BANK4   BANK5   BANK6
  2637 ;;      Params:         0       8       0       0       0       0       0       0
  2638 ;;      Locals:         0      12       0       0       0       0       0       0
  2639 ;;      Temps:          0       4       0       0       0       0       0       0
  2640 ;;      Totals:         0      24       0       0       0       0       0       0
  2641 ;;Total ram usage:       24 bytes
  2642 ;; Hardware stack levels used:    1
  2643 ;; Hardware stack levels required when called:    2
  2644 ;; This function calls:
  2645 ;;		___lwdiv
  2646 ;;		___lwmod
  2647 ;;		___wmul
  2648 ;;		_isdigit
  2649 ;;		_putch
  2650 ;; This function is called by:
  2651 ;;		_setReloj
  2652 ;;		_main
  2653 ;; This function uses a non-reentrant model
  2654 ;;
  2655                           
  2656                           
  2657                           ;psect for function _printf
  2658  05E9                     _printf:	
  2659                           
  2660                           ;doprnt.c: 466: va_list ap;
  2661                           ;doprnt.c: 499: signed char c;
  2662                           ;doprnt.c: 501: int width;
  2663                           ;doprnt.c: 506: signed char prec;
  2664                           ;doprnt.c: 508: unsigned char flag;
  2665                           ;doprnt.c: 523: union {
  2666                           ;doprnt.c: 524: unsigned long vd;
  2667                           ;doprnt.c: 525: double integ;
  2668                           ;doprnt.c: 526: } tmpval;
  2669                           ;doprnt.c: 528: unsigned int val;
  2670                           ;doprnt.c: 529: unsigned len;
  2671                           ;doprnt.c: 530: const char * cp;
  2672                           ;doprnt.c: 533: *ap = __va_start();
  2673                           
  2674                           ;incstack = 0
  2675                           ; Regs used in _printf: [wreg-fsr1h+status,2+status,0+pclath+cstack]
  2676  05E9  3022               	movlw	(low ((?_printf| 0+2)))& (0+255)
  2677  05EA  0020               	movlb	0	; select bank0
  2678  05EB  00A8               	movwf	??_printf
  2679  05EC  0828               	movf	??_printf,w
  2680  05ED  00B1               	movwf	printf@ap
  2681  05EE                     l1457:	
  2682                           ;doprnt.c: 536: while(c = *f++) {
  2683                           
  2684  05EE  0020               	movlb	0	; select bank0
  2685  05EF  0821               	movf	printf@f+1,w
  2686  05F0  00A9               	movwf	??_printf+1
  2687  05F1  0820               	movf	printf@f,w
  2688  05F2  00A8               	movwf	??_printf
  2689  05F3  0AA0               	incf	printf@f,f
  2690  05F4  1903               	skipnz
  2691  05F5  0AA1               	incf	printf@f+1,f
  2692  05F6  0828               	movf	??_printf,w
  2693  05F7  0084               	movwf	4
  2694  05F8  0829               	movf	??_printf+1,w
  2695  05F9  0085               	movwf	5
  2696  05FA  0800               	movf	0,w	;code access
  2697  05FB  00AA               	movwf	??_printf+2
  2698  05FC  082A               	movf	??_printf+2,w
  2699  05FD  00B7               	movwf	printf@c
  2700  05FE  0837               	movf	printf@c,w
  2701  05FF  1903               	btfsc	3,2
  2702  0600  0008               	return
  2703                           
  2704                           ;doprnt.c: 538: if(c != '%')
  2705  0601  3025               	movlw	37
  2706  0602  0637               	xorwf	printf@c,w
  2707  0603  1903               	btfsc	3,2
  2708  0604  2E0A               	goto	l1323
  2709                           
  2710                           ;doprnt.c: 540: {
  2711                           ;doprnt.c: 541: (putch(c) );
  2712  0605  0837               	movf	printf@c,w
  2713  0606  3182  226C  3185   	fcall	_putch
  2714                           
  2715                           ;doprnt.c: 542: continue;
  2716  0609  2DEE               	goto	l1457
  2717  060A                     l1323:	
  2718                           
  2719                           ;doprnt.c: 543: }
  2720                           ;doprnt.c: 546: width = 0;
  2721  060A  0020               	movlb	0	; select bank0
  2722  060B  01B5               	clrf	printf@width
  2723  060C  01B6               	clrf	printf@width+1
  2724                           
  2725                           ;doprnt.c: 548: flag = 0;
  2726  060D  01B4               	clrf	printf@flag
  2727                           
  2728                           ;doprnt.c: 551: switch(*f) {
  2729                           
  2730                           ;doprnt.c: 550: for(;;) {
  2731  060E  2E14               	goto	l1329
  2732  060F                     l197:	
  2733                           ;doprnt.c: 579: case '0':
  2734                           
  2735                           
  2736                           ;doprnt.c: 580: flag |= 0x04;
  2737  060F  1534               	bsf	printf@flag,2
  2738                           
  2739                           ;doprnt.c: 581: f++;
  2740  0610  3001               	movlw	1
  2741  0611  07A0               	addwf	printf@f,f
  2742  0612  3000               	movlw	0
  2743  0613  3DA1               	addwfc	printf@f+1,f
  2744  0614                     l1329:	
  2745                           ;doprnt.c: 584: }
  2746                           
  2747                           ;doprnt.c: 582: continue;
  2748                           
  2749  0614  0820               	movf	printf@f,w
  2750  0615  0084               	movwf	4
  2751  0616  0821               	movf	printf@f+1,w
  2752  0617  0085               	movwf	5
  2753  0618  0800               	movf	0,w	;code access
  2754                           
  2755                           ; Switch size 1, requested type "space"
  2756                           ; Number of cases is 1, Range of values is 48 to 48
  2757                           ; switch strategies available:
  2758                           ; Name         Instructions Cycles
  2759                           ; simple_byte            4     3 (average)
  2760                           ; direct_byte           11     9 (fixed)
  2761                           ; jumptable            263     9 (fixed)
  2762                           ;	Chosen strategy is simple_byte
  2763  0619  3A30               	xorlw	48	; case 48
  2764  061A  1903               	skipnz
  2765  061B  2E0F               	goto	l197
  2766  061C  2E1D               	goto	l1331
  2767  061D                     l1331:	
  2768                           ;doprnt.c: 586: }
  2769                           
  2770                           ;doprnt.c: 585: break;
  2771                           
  2772                           
  2773                           ;doprnt.c: 597: if(isdigit((unsigned)*f)) {
  2774  061D  0820               	movf	printf@f,w
  2775  061E  0084               	movwf	4
  2776  061F  0821               	movf	printf@f+1,w
  2777  0620  0085               	movwf	5
  2778  0621  0800               	movf	0,w	;code access
  2779  0622  3182  22BA  3185   	fcall	_isdigit
  2780  0625  1C03               	btfss	3,0
  2781  0626  2EA4               	goto	l1369
  2782                           
  2783                           ;doprnt.c: 598: width = 0;
  2784  0627  0020               	movlb	0	; select bank0
  2785  0628  01B5               	clrf	printf@width
  2786  0629  01B6               	clrf	printf@width+1
  2787  062A                     l1335:	
  2788                           ;doprnt.c: 599: do {
  2789                           
  2790                           
  2791                           ;doprnt.c: 600: width *= 10;
  2792  062A  300A               	movlw	10
  2793  062B  00F0               	movwf	___wmul@multiplier
  2794  062C  3000               	movlw	0
  2795  062D  00F1               	movwf	___wmul@multiplier+1
  2796  062E  0020               	movlb	0	; select bank0
  2797  062F  0836               	movf	printf@width+1,w
  2798  0630  00F3               	movwf	___wmul@multiplicand+1
  2799  0631  0835               	movf	printf@width,w
  2800  0632  00F2               	movwf	___wmul@multiplicand
  2801  0633  3183  2300  3185   	fcall	___wmul
  2802  0636  0871               	movf	?___wmul+1,w
  2803  0637  0020               	movlb	0	; select bank0
  2804  0638  00B6               	movwf	printf@width+1
  2805  0639  0870               	movf	?___wmul,w
  2806  063A  00B5               	movwf	printf@width
  2807                           
  2808                           ;doprnt.c: 601: width += *f++ - '0';
  2809  063B  0820               	movf	printf@f,w
  2810  063C  0084               	movwf	4
  2811  063D  0821               	movf	printf@f+1,w
  2812  063E  0085               	movwf	5
  2813  063F  0800               	movf	0,w	;code access
  2814  0640  3ED0               	addlw	208
  2815  0641  00A8               	movwf	??_printf
  2816  0642  30FF               	movlw	255
  2817  0643  1803               	skipnc
  2818  0644  3000               	movlw	0
  2819  0645  00A9               	movwf	??_printf+1
  2820  0646  0828               	movf	??_printf,w
  2821  0647  07B5               	addwf	printf@width,f
  2822  0648  0829               	movf	??_printf+1,w
  2823  0649  3DB6               	addwfc	printf@width+1,f
  2824  064A  3001               	movlw	1
  2825  064B  07A0               	addwf	printf@f,f
  2826  064C  3000               	movlw	0
  2827  064D  3DA1               	addwfc	printf@f+1,f
  2828                           
  2829                           ;doprnt.c: 602: } while(isdigit((unsigned)*f));
  2830  064E  0820               	movf	printf@f,w
  2831  064F  0084               	movwf	4
  2832  0650  0821               	movf	printf@f+1,w
  2833  0651  0085               	movwf	5
  2834  0652  0800               	movf	0,w	;code access
  2835  0653  3182  22BA  3185   	fcall	_isdigit
  2836  0656  1C03               	btfss	3,0
  2837  0657  2EA4               	goto	l1369
  2838  0658  2E2A               	goto	l1335
  2839  0659                     l210:	
  2840                           ;doprnt.c: 718: case 'x':
  2841                           
  2842                           ;doprnt.c: 698: case 'i':
  2843                           ;doprnt.c: 699: break;
  2844                           
  2845                           ;doprnt.c: 697: case 'd':
  2846                           
  2847                           ;doprnt.c: 638: goto alldone;
  2848                           
  2849                           ;doprnt.c: 637: case 0:
  2850                           
  2851                           ;doprnt.c: 608: }
  2852                           ;doprnt.c: 635: switch(c = *f++) {
  2853                           
  2854                           
  2855                           ;doprnt.c: 721: flag |= 0x80;
  2856  0659  17B4               	bsf	printf@flag,7
  2857                           
  2858                           ;doprnt.c: 723: break;
  2859  065A  2EC2               	goto	l209
  2860  065B                     l1343:	
  2861                           ;doprnt.c: 750: dostring:
  2862                           
  2863                           
  2864                           ;doprnt.c: 757: if(width > len)
  2865  065B  0836               	movf	printf@width+1,w
  2866  065C  022F               	subwf	printf@len+1,w
  2867  065D  1D03               	skipz
  2868  065E  2E61               	goto	u895
  2869  065F  0835               	movf	printf@width,w
  2870  0660  022E               	subwf	printf@len,w
  2871  0661                     u895:	
  2872  0661  1803               	skipnc
  2873  0662  2E68               	goto	l1347
  2874                           
  2875                           ;doprnt.c: 758: width -= len;
  2876  0663  082E               	movf	printf@len,w
  2877  0664  02B5               	subwf	printf@width,f
  2878  0665  082F               	movf	printf@len+1,w
  2879  0666  3BB6               	subwfb	printf@width+1,f
  2880  0667  2E6A               	goto	l1351
  2881  0668                     l1347:	
  2882                           
  2883                           ;doprnt.c: 759: else
  2884                           ;doprnt.c: 760: width = 0;
  2885  0668  01B5               	clrf	printf@width
  2886  0669  01B6               	clrf	printf@width+1
  2887  066A                     l1351:	
  2888                           ;doprnt.c: 764: while(width--)
  2889                           
  2890  066A  30FF               	movlw	255
  2891  066B  0020               	movlb	0	; select bank0
  2892  066C  07B5               	addwf	printf@width,f
  2893  066D  30FF               	movlw	255
  2894  066E  3DB6               	addwfc	printf@width+1,f
  2895  066F  0A35               	incf	printf@width,w
  2896  0670  1903               	btfsc	3,2
  2897  0671  0A36               	incf	printf@width+1,w
  2898  0672  1903               	btfsc	3,2
  2899  0673  2E85               	goto	l1357
  2900                           
  2901                           ;doprnt.c: 765: (putch(' ') );
  2902  0674  3020               	movlw	32
  2903  0675  3182  226C  3185   	fcall	_putch
  2904  0678  2E6A               	goto	l1351
  2905  0679                     l1353:	
  2906                           ;doprnt.c: 767: while(len--)
  2907                           
  2908                           
  2909                           ;doprnt.c: 768: (putch(*cp++) );
  2910  0679  082D               	movf	printf@cp,w
  2911  067A  0086               	movwf	6
  2912  067B  0187               	clrf	7
  2913  067C  0801               	movf	1,w
  2914  067D  3182  226C  3185   	fcall	_putch
  2915  0680  3001               	movlw	1
  2916  0681  0020               	movlb	0	; select bank0
  2917  0682  00A8               	movwf	??_printf
  2918  0683  0828               	movf	??_printf,w
  2919  0684  07AD               	addwf	printf@cp,f
  2920  0685                     l1357:	
  2921  0685  3001               	movlw	1
  2922  0686  02AE               	subwf	printf@len,f
  2923  0687  3000               	movlw	0
  2924  0688  3BAF               	subwfb	printf@len+1,f
  2925  0689  0A2E               	incf	printf@len,w
  2926  068A  1D03               	skipz
  2927  068B  2E79               	goto	l1353
  2928  068C  0A2F               	incf	printf@len+1,w
  2929  068D  1903               	btfsc	3,2
  2930  068E  2DEE               	goto	l1457
  2931  068F  2E79               	goto	l1353
  2932  0690                     l1359:	
  2933                           ;doprnt.c: 784: case 'c':
  2934                           
  2935                           ;doprnt.c: 774: continue;
  2936                           
  2937                           
  2938                           ;doprnt.c: 799: c = (*(int *)__va_arg((*(int **)ap), (int)0));
  2939  0690  0831               	movf	printf@ap,w
  2940  0691  0086               	movwf	6
  2941  0692  0187               	clrf	7
  2942  0693  0801               	movf	1,w
  2943  0694  00A8               	movwf	??_printf
  2944  0695  0828               	movf	??_printf,w
  2945  0696  00B7               	movwf	printf@c
  2946  0697  3002               	movlw	2
  2947  0698  00A8               	movwf	??_printf
  2948  0699  0828               	movf	??_printf,w
  2949  069A  07B1               	addwf	printf@ap,f
  2950  069B                     l1363:	
  2951                           ;doprnt.c: 802: default:
  2952                           
  2953                           
  2954                           ;doprnt.c: 805: cp = (char *)&c;
  2955  069B  3037               	movlw	(low (printf@c| 0))& (0+255)
  2956  069C  00A8               	movwf	??_printf
  2957  069D  0828               	movf	??_printf,w
  2958  069E  00AD               	movwf	printf@cp
  2959                           
  2960                           ;doprnt.c: 806: len = 1;
  2961  069F  3001               	movlw	1
  2962  06A0  00AE               	movwf	printf@len
  2963  06A1  3000               	movlw	0
  2964  06A2  00AF               	movwf	printf@len+1
  2965                           
  2966                           ;doprnt.c: 807: goto dostring;
  2967  06A3  2E5B               	goto	l1343
  2968  06A4                     l1369:	
  2969                           ;doprnt.c: 822: }
  2970                           
  2971  06A4  0020               	movlb	0	; select bank0
  2972  06A5  0821               	movf	printf@f+1,w
  2973  06A6  00A9               	movwf	??_printf+1
  2974  06A7  0820               	movf	printf@f,w
  2975  06A8  00A8               	movwf	??_printf
  2976  06A9  0AA0               	incf	printf@f,f
  2977  06AA  1903               	skipnz
  2978  06AB  0AA1               	incf	printf@f+1,f
  2979  06AC  0828               	movf	??_printf,w
  2980  06AD  0084               	movwf	4
  2981  06AE  0829               	movf	??_printf+1,w
  2982  06AF  0085               	movwf	5
  2983  06B0  0800               	movf	0,w	;code access
  2984  06B1  00B7               	movwf	printf@c
  2985                           
  2986                           ; Switch size 1, requested type "space"
  2987                           ; Number of cases is 5, Range of values is 0 to 120
  2988                           ; switch strategies available:
  2989                           ; Name         Instructions Cycles
  2990                           ; simple_byte           16     9 (average)
  2991                           ; direct_byte          248     6 (fixed)
  2992                           ; jumptable            260     6 (fixed)
  2993                           ;	Chosen strategy is simple_byte
  2994  06B2  3A00               	xorlw	0	; case 0
  2995  06B3  1903               	skipnz
  2996  06B4  2FFC               	goto	l256
  2997  06B5  3A63               	xorlw	99	; case 99
  2998  06B6  1903               	skipnz
  2999  06B7  2E90               	goto	l1359
  3000  06B8  3A07               	xorlw	7	; case 100
  3001  06B9  1903               	skipnz
  3002  06BA  2EC2               	goto	l209
  3003  06BB  3A0D               	xorlw	13	; case 105
  3004  06BC  1903               	skipnz
  3005  06BD  2EC2               	goto	l209
  3006  06BE  3A11               	xorlw	17	; case 120
  3007  06BF  1903               	skipnz
  3008  06C0  2E59               	goto	l210
  3009  06C1  2E9B               	goto	l1363
  3010  06C2                     l209:	
  3011                           
  3012                           ;doprnt.c: 1251: if((flag & 0x80) == 0x00)
  3013  06C2  0020               	movlb	0	; select bank0
  3014  06C3  1BB4               	btfsc	printf@flag,7
  3015  06C4  2EDC               	goto	l1381
  3016                           
  3017                           ;doprnt.c: 1253: {
  3018                           ;doprnt.c: 1259: val = (int)(*(int *)__va_arg((*(int **)ap), (int)0));
  3019  06C5  0831               	movf	printf@ap,w
  3020  06C6  0086               	movwf	6
  3021  06C7  0187               	clrf	7
  3022  06C8  3F40               	moviw [0]fsr1
  3023  06C9  00B2               	movwf	printf@val
  3024  06CA  3F41               	moviw [1]fsr1
  3025  06CB  00B3               	movwf	printf@val+1
  3026  06CC  3002               	movlw	2
  3027  06CD  00A8               	movwf	??_printf
  3028  06CE  0828               	movf	??_printf,w
  3029  06CF  07B1               	addwf	printf@ap,f
  3030                           
  3031                           ;doprnt.c: 1261: if((int)val < 0) {
  3032  06D0  1FB3               	btfss	printf@val+1,7
  3033  06D1  2F2C               	goto	l1407
  3034                           
  3035                           ;doprnt.c: 1262: flag |= 0x03;
  3036  06D2  3003               	movlw	3
  3037  06D3  00A8               	movwf	??_printf
  3038  06D4  0828               	movf	??_printf,w
  3039  06D5  04B4               	iorwf	printf@flag,f
  3040                           
  3041                           ;doprnt.c: 1263: val = -val;
  3042  06D6  09B2               	comf	printf@val,f
  3043  06D7  09B3               	comf	printf@val+1,f
  3044  06D8  0AB2               	incf	printf@val,f
  3045  06D9  1903               	skipnz
  3046  06DA  0AB3               	incf	printf@val+1,f
  3047                           
  3048                           ;doprnt.c: 1264: }
  3049                           ;doprnt.c: 1266: }
  3050  06DB  2F2C               	goto	l1407
  3051  06DC                     l1381:	
  3052                           
  3053                           ;doprnt.c: 1268: else
  3054                           ;doprnt.c: 1273: {
  3055                           ;doprnt.c: 1286: val = (*(unsigned *)__va_arg((*(unsigned **)ap), (unsigned)0));
  3056  06DC  0831               	movf	printf@ap,w
  3057  06DD  0086               	movwf	6
  3058  06DE  0187               	clrf	7
  3059  06DF  3F40               	moviw [0]fsr1
  3060  06E0  00B2               	movwf	printf@val
  3061  06E1  3F41               	moviw [1]fsr1
  3062  06E2  00B3               	movwf	printf@val+1
  3063  06E3  3002               	movlw	2
  3064  06E4  00A8               	movwf	??_printf
  3065  06E5  0828               	movf	??_printf,w
  3066  06E6  07B1               	addwf	printf@ap,f
  3067                           
  3068                           ;doprnt.c: 1287: }
  3069                           ;doprnt.c: 1294: switch((unsigned char)(flag & 0x80)) {
  3070  06E7  2F2C               	goto	l1407
  3071  06E8                     l226:	
  3072                           ;doprnt.c: 1299: case 0x00:
  3073                           
  3074                           
  3075                           ;doprnt.c: 1305: for(c = 1 ; c != sizeof dpowers/sizeof dpowers[0] ; c++)
  3076  06E8  01B7               	clrf	printf@c
  3077  06E9  0AB7               	incf	printf@c,f
  3078  06EA                     L3:	
  3079  06EA  3005               	movlw	5
  3080  06EB  0637               	xorwf	printf@c,w
  3081  06EC  1903               	btfsc	3,2
  3082  06ED  2F35               	goto	l1409
  3083                           
  3084                           ;doprnt.c: 1306: if(val < dpowers[c])
  3085  06EE  0837               	movf	printf@c,w
  3086  06EF  00A8               	movwf	??_printf
  3087  06F0  01A9               	clrf	??_printf+1
  3088  06F1  35A8               	lslf	??_printf,f
  3089  06F2  0DA9               	rlf	??_printf+1,f
  3090  06F3  3000               	movlw	low (_dpowers| (0+32768))
  3091  06F4  0728               	addwf	??_printf,w
  3092  06F5  0084               	movwf	4
  3093  06F6  3088               	movlw	high (_dpowers| (0+32768))
  3094  06F7  3D29               	addwfc	??_printf+1,w
  3095  06F8  0085               	movwf	5
  3096  06F9  3F00               	moviw [0]fsr0
  3097  06FA  00AA               	movwf	??_printf+2
  3098  06FB  3F01               	moviw [1]fsr0
  3099  06FC  00AB               	movwf	??_printf+3
  3100  06FD  082B               	movf	??_printf+3,w
  3101  06FE  0233               	subwf	printf@val+1,w
  3102  06FF  1D03               	skipz
  3103  0700  2F03               	goto	u955
  3104  0701  082A               	movf	??_printf+2,w
  3105  0702  0232               	subwf	printf@val,w
  3106  0703                     u955:	
  3107  0703  1C03               	btfss	3,0
  3108  0704  2F35               	goto	l1409
  3109                           
  3110                           ;doprnt.c: 1307: break;
  3111  0705  3001               	movlw	1
  3112  0706  00A8               	movwf	??_printf
  3113  0707  0828               	movf	??_printf,w
  3114  0708  07B7               	addwf	printf@c,f
  3115  0709  2EEA               	goto	L3
  3116  070A                     l231:	
  3117                           ;doprnt.c: 1314: case 0x80:
  3118                           
  3119                           ;doprnt.c: 1309: break;
  3120                           
  3121                           
  3122                           ;doprnt.c: 1316: for(c = 1 ; c != sizeof hexpowers/sizeof hexpowers[0] ; c++)
  3123  070A  01B7               	clrf	printf@c
  3124  070B  0AB7               	incf	printf@c,f
  3125  070C                     L4:	
  3126  070C  3004               	movlw	4
  3127  070D  0637               	xorwf	printf@c,w
  3128  070E  1903               	btfsc	3,2
  3129  070F  2F35               	goto	l1409
  3130                           
  3131                           ;doprnt.c: 1317: if(val < hexpowers[c])
  3132  0710  0837               	movf	printf@c,w
  3133  0711  00A8               	movwf	??_printf
  3134  0712  01A9               	clrf	??_printf+1
  3135  0713  35A8               	lslf	??_printf,f
  3136  0714  0DA9               	rlf	??_printf+1,f
  3137  0715  300A               	movlw	low (_hexpowers| (0+32768))
  3138  0716  0728               	addwf	??_printf,w
  3139  0717  0084               	movwf	4
  3140  0718  3088               	movlw	high (_hexpowers| (0+32768))
  3141  0719  3D29               	addwfc	??_printf+1,w
  3142  071A  0085               	movwf	5
  3143  071B  3F00               	moviw [0]fsr0
  3144  071C  00AA               	movwf	??_printf+2
  3145  071D  3F01               	moviw [1]fsr0
  3146  071E  00AB               	movwf	??_printf+3
  3147  071F  082B               	movf	??_printf+3,w
  3148  0720  0233               	subwf	printf@val+1,w
  3149  0721  1D03               	skipz
  3150  0722  2F25               	goto	u985
  3151  0723  082A               	movf	??_printf+2,w
  3152  0724  0232               	subwf	printf@val,w
  3153  0725                     u985:	
  3154  0725  1C03               	btfss	3,0
  3155  0726  2F35               	goto	l1409
  3156                           
  3157                           ;doprnt.c: 1318: break;
  3158  0727  3001               	movlw	1
  3159  0728  00A8               	movwf	??_printf
  3160  0729  0828               	movf	??_printf,w
  3161  072A  07B7               	addwf	printf@c,f
  3162  072B  2F0C               	goto	L4
  3163  072C                     l1407:	
  3164                           ;doprnt.c: 1336: }
  3165                           
  3166                           ;doprnt.c: 1320: break;
  3167                           
  3168  072C  0834               	movf	printf@flag,w
  3169  072D  3980               	andlw	128
  3170                           
  3171                           ; Switch size 1, requested type "space"
  3172                           ; Number of cases is 2, Range of values is 0 to 128
  3173                           ; switch strategies available:
  3174                           ; Name         Instructions Cycles
  3175                           ; simple_byte            7     4 (average)
  3176                           ; jumptable            260     6 (fixed)
  3177                           ;	Chosen strategy is simple_byte
  3178  072E  3A00               	xorlw	0	; case 0
  3179  072F  1903               	skipnz
  3180  0730  2EE8               	goto	l226
  3181  0731  3A80               	xorlw	128	; case 128
  3182  0732  1903               	skipnz
  3183  0733  2F0A               	goto	l231
  3184  0734  2F35               	goto	l1409
  3185  0735                     l1409:	
  3186                           
  3187                           ;doprnt.c: 1345: if(width && flag & 0x03)
  3188  0735  0835               	movf	printf@width,w
  3189  0736  0436               	iorwf	printf@width+1,w
  3190  0737  1903               	btfsc	3,2
  3191  0738  2F41               	goto	l235
  3192  0739  0834               	movf	printf@flag,w
  3193  073A  3903               	andlw	3
  3194  073B  1903               	btfsc	3,2
  3195  073C  2F41               	goto	l235
  3196                           
  3197                           ;doprnt.c: 1346: width--;
  3198  073D  30FF               	movlw	255
  3199  073E  07B5               	addwf	printf@width,f
  3200  073F  30FF               	movlw	255
  3201  0740  3DB6               	addwfc	printf@width+1,f
  3202  0741                     l235:	
  3203                           
  3204                           ;doprnt.c: 1381: if(width > c)
  3205  0741  0837               	movf	printf@c,w
  3206  0742  00A8               	movwf	??_printf
  3207  0743  01A9               	clrf	??_printf+1
  3208  0744  1BA8               	btfsc	??_printf,7
  3209  0745  03A9               	decf	??_printf+1,f
  3210  0746  0829               	movf	??_printf+1,w
  3211  0747  3A80               	xorlw	128
  3212  0748  00AA               	movwf	??_printf+2
  3213  0749  0836               	movf	printf@width+1,w
  3214  074A  3A80               	xorlw	128
  3215  074B  022A               	subwf	??_printf+2,w
  3216  074C  1D03               	skipz
  3217  074D  2F50               	goto	u1025
  3218  074E  0835               	movf	printf@width,w
  3219  074F  0228               	subwf	??_printf,w
  3220  0750                     u1025:	
  3221  0750  1803               	skipnc
  3222  0751  2F5D               	goto	l1417
  3223                           
  3224                           ;doprnt.c: 1382: width -= c;
  3225  0752  0020               	movlb	0	; select bank0
  3226  0753  0837               	movf	printf@c,w
  3227  0754  00A8               	movwf	??_printf
  3228  0755  01A9               	clrf	??_printf+1
  3229  0756  1BA8               	btfsc	??_printf,7
  3230  0757  03A9               	decf	??_printf+1,f
  3231  0758  0828               	movf	??_printf,w
  3232  0759  02B5               	subwf	printf@width,f
  3233  075A  0829               	movf	??_printf+1,w
  3234  075B  3BB6               	subwfb	printf@width+1,f
  3235  075C  2F60               	goto	l1419
  3236  075D                     l1417:	
  3237                           
  3238                           ;doprnt.c: 1383: else
  3239                           ;doprnt.c: 1384: width = 0;
  3240  075D  0020               	movlb	0	; select bank0
  3241  075E  01B5               	clrf	printf@width
  3242  075F  01B6               	clrf	printf@width+1
  3243  0760                     l1419:	
  3244                           
  3245                           ;doprnt.c: 1387: if(flag & 0x04) {
  3246  0760  1D34               	btfss	printf@flag,2
  3247  0761  2F79               	goto	l1431
  3248                           
  3249                           ;doprnt.c: 1392: if(flag & 0x03)
  3250  0762  0834               	movf	printf@flag,w
  3251  0763  3903               	andlw	3
  3252  0764  1903               	btfsc	3,2
  3253  0765  2F6A               	goto	l1425
  3254                           
  3255                           ;doprnt.c: 1393: (putch('-') );
  3256  0766  302D               	movlw	45
  3257  0767  3182  226C  3185   	fcall	_putch
  3258  076A                     l1425:	
  3259                           
  3260                           ;doprnt.c: 1415: if(width)
  3261  076A  0020               	movlb	0	; select bank0
  3262  076B                     L5:	
  3263  076B  0835               	movf	printf@width,w
  3264  076C  0436               	iorwf	printf@width+1,w
  3265  076D  1903               	btfsc	3,2
  3266  076E  2F92               	goto	l1441
  3267                           
  3268                           ;doprnt.c: 1417: (putch('0') );
  3269                           
  3270                           ;doprnt.c: 1416: do
  3271  076F  3030               	movlw	48
  3272  0770  3182  226C  3185   	fcall	_putch
  3273                           
  3274                           ;doprnt.c: 1418: while(--width);
  3275  0773  30FF               	movlw	255
  3276  0774  0020               	movlb	0	; select bank0
  3277  0775  07B5               	addwf	printf@width,f
  3278  0776  30FF               	movlw	255
  3279  0777  3DB6               	addwfc	printf@width+1,f
  3280  0778  2F6B               	goto	L5
  3281  0779                     l1431:	
  3282                           ;doprnt.c: 1420: } else
  3283                           
  3284                           
  3285                           ;doprnt.c: 1422: {
  3286                           ;doprnt.c: 1424: if(width
  3287                           ;doprnt.c: 1428: )
  3288  0779  0835               	movf	printf@width,w
  3289  077A  0436               	iorwf	printf@width+1,w
  3290  077B  1903               	btfsc	3,2
  3291  077C  2F8A               	goto	l1437
  3292  077D                     l1433:	
  3293                           ;doprnt.c: 1429: do
  3294                           
  3295                           
  3296                           ;doprnt.c: 1430: (putch(' ') );
  3297  077D  3020               	movlw	32
  3298  077E  3182  226C  3185   	fcall	_putch
  3299                           
  3300                           ;doprnt.c: 1431: while(--width);
  3301  0781  30FF               	movlw	255
  3302  0782  0020               	movlb	0	; select bank0
  3303  0783  07B5               	addwf	printf@width,f
  3304  0784  30FF               	movlw	255
  3305  0785  3DB6               	addwfc	printf@width+1,f
  3306  0786  0835               	movf	printf@width,w
  3307  0787  0436               	iorwf	printf@width+1,w
  3308  0788  1D03               	btfss	3,2
  3309  0789  2F7D               	goto	l1433
  3310  078A                     l1437:	
  3311                           
  3312                           ;doprnt.c: 1438: if(flag & 0x03)
  3313  078A  0834               	movf	printf@flag,w
  3314  078B  3903               	andlw	3
  3315  078C  1903               	btfsc	3,2
  3316  078D  2F92               	goto	l1441
  3317                           
  3318                           ;doprnt.c: 1439: (putch('-') );
  3319  078E  302D               	movlw	45
  3320  078F  3182  226C  3185   	fcall	_putch
  3321  0792                     l1441:	
  3322                           
  3323                           ;doprnt.c: 1469: }
  3324                           ;doprnt.c: 1472: prec = c;
  3325  0792  0020               	movlb	0	; select bank0
  3326  0793  0837               	movf	printf@c,w
  3327  0794  00A8               	movwf	??_printf
  3328  0795  0828               	movf	??_printf,w
  3329  0796  00B0               	movwf	printf@prec
  3330                           
  3331                           ;doprnt.c: 1474: while(prec--) {
  3332  0797  2FEA               	goto	l1455
  3333  0798                     l1443:	
  3334                           ;doprnt.c: 1478: {
  3335                           ;doprnt.c: 1483: case 0x00:
  3336                           
  3337                           ;doprnt.c: 1476: switch((unsigned char)(flag & 0x80))
  3338                           
  3339                           
  3340                           ;doprnt.c: 1489: c = (val / dpowers[prec]) % 10 + '0';
  3341  0798  300A               	movlw	10
  3342  0799  00F8               	movwf	___lwmod@divisor
  3343  079A  3000               	movlw	0
  3344  079B  00F9               	movwf	___lwmod@divisor+1
  3345  079C  0830               	movf	printf@prec,w
  3346  079D  00A8               	movwf	??_printf
  3347  079E  01A9               	clrf	??_printf+1
  3348  079F  35A8               	lslf	??_printf,f
  3349  07A0  0DA9               	rlf	??_printf+1,f
  3350  07A1  3000               	movlw	low (_dpowers| (0+32768))
  3351  07A2  0728               	addwf	??_printf,w
  3352  07A3  0084               	movwf	4
  3353  07A4  3088               	movlw	high (_dpowers| (0+32768))
  3354  07A5  3D29               	addwfc	??_printf+1,w
  3355  07A6  0085               	movwf	5
  3356  07A7  3F00               	moviw [0]fsr0
  3357  07A8  00F0               	movwf	___lwdiv@divisor
  3358  07A9  3F01               	moviw [1]fsr0
  3359  07AA  00F1               	movwf	___lwdiv@divisor+1
  3360  07AB  0833               	movf	printf@val+1,w
  3361  07AC  00F3               	movwf	___lwdiv@dividend+1
  3362  07AD  0832               	movf	printf@val,w
  3363  07AE  00F2               	movwf	___lwdiv@dividend
  3364  07AF  3183  23A8  3185   	fcall	___lwdiv
  3365  07B2  0871               	movf	?___lwdiv+1,w
  3366  07B3  00FB               	movwf	___lwmod@dividend+1
  3367  07B4  0870               	movf	?___lwdiv,w
  3368  07B5  00FA               	movwf	___lwmod@dividend
  3369  07B6  3183  237C  3185   	fcall	___lwmod
  3370  07B9  0878               	movf	?___lwmod,w
  3371  07BA  3E30               	addlw	48
  3372  07BB  0020               	movlb	0	; select bank0
  3373  07BC  00AA               	movwf	??_printf+2
  3374  07BD  082A               	movf	??_printf+2,w
  3375  07BE  2FE5               	goto	L2
  3376  07BF                     l1445:	
  3377                           ;doprnt.c: 1497: case 0x80:
  3378                           
  3379                           ;doprnt.c: 1491: break;
  3380                           
  3381                           
  3382                           ;doprnt.c: 1499: {
  3383                           ;doprnt.c: 1500: unsigned char idx = (val / hexpowers[prec]) & 0xF;
  3384  07BF  0830               	movf	printf@prec,w
  3385  07C0  00A8               	movwf	??_printf
  3386  07C1  01A9               	clrf	??_printf+1
  3387  07C2  35A8               	lslf	??_printf,f
  3388  07C3  0DA9               	rlf	??_printf+1,f
  3389  07C4  300A               	movlw	low (_hexpowers| (0+32768))
  3390  07C5  0728               	addwf	??_printf,w
  3391  07C6  0084               	movwf	4
  3392  07C7  3088               	movlw	high (_hexpowers| (0+32768))
  3393  07C8  3D29               	addwfc	??_printf+1,w
  3394  07C9  0085               	movwf	5
  3395  07CA  3F00               	moviw [0]fsr0
  3396  07CB  00F0               	movwf	___lwdiv@divisor
  3397  07CC  3F01               	moviw [1]fsr0
  3398  07CD  00F1               	movwf	___lwdiv@divisor+1
  3399  07CE  0833               	movf	printf@val+1,w
  3400  07CF  00F3               	movwf	___lwdiv@dividend+1
  3401  07D0  0832               	movf	printf@val,w
  3402  07D1  00F2               	movwf	___lwdiv@dividend
  3403  07D2  3183  23A8  3185   	fcall	___lwdiv
  3404  07D5  0870               	movf	?___lwdiv,w
  3405  07D6  390F               	andlw	15
  3406  07D7  0020               	movlb	0	; select bank0
  3407  07D8  00AA               	movwf	??_printf+2
  3408  07D9  082A               	movf	??_printf+2,w
  3409  07DA  00AC               	movwf	printf@idx
  3410                           
  3411                           ;doprnt.c: 1506: c = "0123456789abcdef"[idx];
  3412  07DB  082C               	movf	printf@idx,w
  3413  07DC  3EF4               	addlw	low (STR_22| (0+32768))
  3414  07DD  0084               	movwf	4
  3415  07DE  308A               	movlw	high (STR_22| (0+32768))
  3416  07DF  1803               	skipnc
  3417  07E0  3E01               	addlw	1
  3418  07E1  0085               	movwf	5
  3419  07E2  0800               	movf	0,w	;code access
  3420  07E3  00A8               	movwf	??_printf
  3421  07E4  0828               	movf	??_printf,w
  3422  07E5                     L2:	
  3423  07E5  00B7               	movwf	printf@c
  3424  07E6                     l1453:	
  3425                           ;doprnt.c: 1523: }
  3426                           
  3427                           ;doprnt.c: 1508: }
  3428                           ;doprnt.c: 1510: break;
  3429                           
  3430                           
  3431                           ;doprnt.c: 1524: (putch(c) );
  3432  07E6  0837               	movf	printf@c,w
  3433  07E7  3182  226C  3185   	fcall	_putch
  3434  07EA                     l1455:	
  3435  07EA  30FF               	movlw	255
  3436  07EB  0020               	movlb	0	; select bank0
  3437  07EC  00A8               	movwf	??_printf
  3438  07ED  0828               	movf	??_printf,w
  3439  07EE  07B0               	addwf	printf@prec,f
  3440  07EF  0A30               	incf	printf@prec,w
  3441  07F0  1903               	btfsc	3,2
  3442  07F1  2DEE               	goto	l1457
  3443  07F2  0834               	movf	printf@flag,w
  3444  07F3  3980               	andlw	128
  3445                           
  3446                           ; Switch size 1, requested type "space"
  3447                           ; Number of cases is 2, Range of values is 0 to 128
  3448                           ; switch strategies available:
  3449                           ; Name         Instructions Cycles
  3450                           ; simple_byte            7     4 (average)
  3451                           ; jumptable            260     6 (fixed)
  3452                           ;	Chosen strategy is simple_byte
  3453  07F4  3A00               	xorlw	0	; case 0
  3454  07F5  1903               	skipnz
  3455  07F6  2F98               	goto	l1443
  3456  07F7  3A80               	xorlw	128	; case 128
  3457  07F8  1903               	skipnz
  3458  07F9  2FBF               	goto	l1445
  3459  07FA  2FE6               	goto	l1453
  3460  07FB  2FE6               	goto	l1453
  3461  07FC                     l256:	
  3462                           ;doprnt.c: 1540: return 0;
  3463                           ;	Return value of _printf is never used
  3464                           
  3465                           ;doprnt.c: 1525: }
  3466                           ;doprnt.c: 1533: }
  3467                           ;doprnt.c: 1535: alldone:
  3468                           
  3469  07FC  0008               	return
  3470  07FD                     __end_of_printf:	
  3471                           
  3472                           	psect	text3
  3473  026C                     __ptext3:	
  3474 ;; *************** function _putch *****************
  3475 ;; Defined at:
  3476 ;;		line 111 in file "mcc_generated_files/eusart.c"
  3477 ;; Parameters:    Size  Location     Type
  3478 ;;  txData          1    wreg     unsigned char 
  3479 ;; Auto vars:     Size  Location     Type
  3480 ;;  txData          1    1[COMMON] unsigned char 
  3481 ;; Return value:  Size  Location     Type
  3482 ;;                  1    wreg      void 
  3483 ;; Registers used:
  3484 ;;		wreg, status,2, status,0, pclath, cstack
  3485 ;; Tracked objects:
  3486 ;;		On entry : 0/0
  3487 ;;		On exit  : 0/0
  3488 ;;		Unchanged: 0/0
  3489 ;; Data sizes:     COMMON   BANK0   BANK1   BANK2   BANK3   BANK4   BANK5   BANK6
  3490 ;;      Params:         0       0       0       0       0       0       0       0
  3491 ;;      Locals:         1       0       0       0       0       0       0       0
  3492 ;;      Temps:          0       0       0       0       0       0       0       0
  3493 ;;      Totals:         1       0       0       0       0       0       0       0
  3494 ;;Total ram usage:        1 bytes
  3495 ;; Hardware stack levels used:    1
  3496 ;; Hardware stack levels required when called:    1
  3497 ;; This function calls:
  3498 ;;		_EUSART_Write
  3499 ;; This function is called by:
  3500 ;;		_printf
  3501 ;; This function uses a non-reentrant model
  3502 ;;
  3503                           
  3504                           
  3505                           ;psect for function _putch
  3506  026C                     _putch:	
  3507                           
  3508                           ;incstack = 0
  3509                           ; Regs used in _putch: [wreg+status,2+status,0+pclath+cstack]
  3510                           ;putch@txData stored from wreg
  3511  026C  00F1               	movwf	putch@txData
  3512                           
  3513                           ;eusart.c: 113: EUSART_Write(txData);
  3514  026D  0871               	movf	putch@txData,w
  3515  026E  3182  2286         	fcall	_EUSART_Write
  3516  0270  0008               	return
  3517  0271                     __end_of_putch:	
  3518                           
  3519                           	psect	text4
  3520  0286                     __ptext4:	
  3521 ;; *************** function _EUSART_Write *****************
  3522 ;; Defined at:
  3523 ;;		line 97 in file "mcc_generated_files/eusart.c"
  3524 ;; Parameters:    Size  Location     Type
  3525 ;;  txData          1    wreg     unsigned char 
  3526 ;; Auto vars:     Size  Location     Type
  3527 ;;  txData          1    0[COMMON] unsigned char 
  3528 ;; Return value:  Size  Location     Type
  3529 ;;                  1    wreg      void 
  3530 ;; Registers used:
  3531 ;;		wreg
  3532 ;; Tracked objects:
  3533 ;;		On entry : 0/0
  3534 ;;		On exit  : 0/0
  3535 ;;		Unchanged: 0/0
  3536 ;; Data sizes:     COMMON   BANK0   BANK1   BANK2   BANK3   BANK4   BANK5   BANK6
  3537 ;;      Params:         0       0       0       0       0       0       0       0
  3538 ;;      Locals:         1       0       0       0       0       0       0       0
  3539 ;;      Temps:          0       0       0       0       0       0       0       0
  3540 ;;      Totals:         1       0       0       0       0       0       0       0
  3541 ;;Total ram usage:        1 bytes
  3542 ;; Hardware stack levels used:    1
  3543 ;; This function calls:
  3544 ;;		Nothing
  3545 ;; This function is called by:
  3546 ;;		_putch
  3547 ;; This function uses a non-reentrant model
  3548 ;;
  3549                           
  3550                           
  3551                           ;psect for function _EUSART_Write
  3552  0286                     _EUSART_Write:	
  3553                           
  3554                           ;incstack = 0
  3555                           ; Regs used in _EUSART_Write: [wreg]
  3556                           ;EUSART_Write@txData stored from wreg
  3557  0286  00F0               	movwf	EUSART_Write@txData
  3558  0287                     l111:	
  3559                           ;eusart.c: 100: {
  3560                           
  3561                           ;eusart.c: 99: while(0 == PIR1bits.TXIF)
  3562                           
  3563  0287  0020               	movlb	0	; select bank0
  3564  0288  1E11               	btfss	17,4	;volatile
  3565  0289  2A87               	goto	l111
  3566                           
  3567                           ;eusart.c: 101: }
  3568                           ;eusart.c: 103: TXREG = txData;
  3569  028A  0870               	movf	EUSART_Write@txData,w
  3570  028B  0023               	movlb	3	; select bank3
  3571  028C  009A               	movwf	26	;volatile
  3572  028D  0008               	return
  3573  028E                     __end_of_EUSART_Write:	
  3574                           
  3575                           	psect	text5
  3576  02BA                     __ptext5:	
  3577 ;; *************** function _isdigit *****************
  3578 ;; Defined at:
  3579 ;;		line 8 in file "/Applications/microchip/xc8/v1.38/sources/common/isdigit.c"
  3580 ;; Parameters:    Size  Location     Type
  3581 ;;  c               1    wreg     unsigned char 
  3582 ;; Auto vars:     Size  Location     Type
  3583 ;;  c               1    1[COMMON] unsigned char 
  3584 ;; Return value:  Size  Location     Type
  3585 ;;		None               void
  3586 ;; Registers used:
  3587 ;;		wreg, status,2, status,0
  3588 ;; Tracked objects:
  3589 ;;		On entry : 0/0
  3590 ;;		On exit  : 0/0
  3591 ;;		Unchanged: 0/0
  3592 ;; Data sizes:     COMMON   BANK0   BANK1   BANK2   BANK3   BANK4   BANK5   BANK6
  3593 ;;      Params:         0       0       0       0       0       0       0       0
  3594 ;;      Locals:         2       0       0       0       0       0       0       0
  3595 ;;      Temps:          0       0       0       0       0       0       0       0
  3596 ;;      Totals:         2       0       0       0       0       0       0       0
  3597 ;;Total ram usage:        2 bytes
  3598 ;; Hardware stack levels used:    1
  3599 ;; This function calls:
  3600 ;;		Nothing
  3601 ;; This function is called by:
  3602 ;;		_printf
  3603 ;; This function uses a non-reentrant model
  3604 ;;
  3605                           
  3606                           
  3607                           ;psect for function _isdigit
  3608  02BA                     _isdigit:	
  3609                           
  3610                           ;incstack = 0
  3611                           ; Regs used in _isdigit: [wreg+status,2+status,0]
  3612                           ;isdigit@c stored from wreg
  3613  02BA  00F1               	movwf	isdigit@c
  3614  02BB  01F0               	clrf	_isdigit$596
  3615  02BC  303A               	movlw	58
  3616  02BD  0271               	subwf	isdigit@c,w
  3617  02BE  1803               	skipnc
  3618  02BF  2AC6               	goto	l1223
  3619  02C0  3030               	movlw	48
  3620  02C1  0271               	subwf	isdigit@c,w
  3621  02C2  1C03               	skipc
  3622  02C3  2AC6               	goto	l1223
  3623  02C4  01F0               	clrf	_isdigit$596
  3624  02C5  0AF0               	incf	_isdigit$596,f
  3625  02C6                     l1223:	
  3626  02C6  0C70               	rrf	_isdigit$596,w
  3627  02C7  0008               	return
  3628  02C8                     __end_of_isdigit:	
  3629                           
  3630                           	psect	text6
  3631  0300                     __ptext6:	
  3632 ;; *************** function ___wmul *****************
  3633 ;; Defined at:
  3634 ;;		line 15 in file "/Applications/microchip/xc8/v1.38/sources/common/Umul16.c"
  3635 ;; Parameters:    Size  Location     Type
  3636 ;;  multiplier      2    0[COMMON] unsigned int 
  3637 ;;  multiplicand    2    2[COMMON] unsigned int 
  3638 ;; Auto vars:     Size  Location     Type
  3639 ;;  product         2    4[COMMON] unsigned int 
  3640 ;; Return value:  Size  Location     Type
  3641 ;;                  2    0[COMMON] unsigned int 
  3642 ;; Registers used:
  3643 ;;		wreg, status,2, status,0
  3644 ;; Tracked objects:
  3645 ;;		On entry : 0/0
  3646 ;;		On exit  : 0/0
  3647 ;;		Unchanged: 0/0
  3648 ;; Data sizes:     COMMON   BANK0   BANK1   BANK2   BANK3   BANK4   BANK5   BANK6
  3649 ;;      Params:         4       0       0       0       0       0       0       0
  3650 ;;      Locals:         2       0       0       0       0       0       0       0
  3651 ;;      Temps:          0       0       0       0       0       0       0       0
  3652 ;;      Totals:         6       0       0       0       0       0       0       0
  3653 ;;Total ram usage:        6 bytes
  3654 ;; Hardware stack levels used:    1
  3655 ;; This function calls:
  3656 ;;		Nothing
  3657 ;; This function is called by:
  3658 ;;		_printf
  3659 ;; This function uses a non-reentrant model
  3660 ;;
  3661                           
  3662                           
  3663                           ;psect for function ___wmul
  3664  0300                     ___wmul:	
  3665                           
  3666                           ;incstack = 0
  3667                           ; Regs used in ___wmul: [wreg+status,2+status,0]
  3668  0300  01F4               	clrf	___wmul@product
  3669  0301  01F5               	clrf	___wmul@product+1
  3670  0302                     l1229:	
  3671  0302  1C70               	btfss	___wmul@multiplier,0
  3672  0303  2B08               	goto	l340
  3673  0304  0872               	movf	___wmul@multiplicand,w
  3674  0305  07F4               	addwf	___wmul@product,f
  3675  0306  0873               	movf	___wmul@multiplicand+1,w
  3676  0307  3DF5               	addwfc	___wmul@product+1,f
  3677  0308                     l340:	
  3678  0308  3001               	movlw	1
  3679  0309                     u685:	
  3680  0309  35F2               	lslf	___wmul@multiplicand,f
  3681  030A  0DF3               	rlf	___wmul@multiplicand+1,f
  3682  030B  0B89               	decfsz	9,f
  3683  030C  2B09               	goto	u685
  3684  030D  3001               	movlw	1
  3685  030E                     u695:	
  3686  030E  36F1               	lsrf	___wmul@multiplier+1,f
  3687  030F  0CF0               	rrf	___wmul@multiplier,f
  3688  0310  0B89               	decfsz	9,f
  3689  0311  2B0E               	goto	u695
  3690  0312  0870               	movf	___wmul@multiplier,w
  3691  0313  0471               	iorwf	___wmul@multiplier+1,w
  3692  0314  1D03               	btfss	3,2
  3693  0315  2B02               	goto	l1229
  3694  0316  0875               	movf	___wmul@product+1,w
  3695  0317  00F1               	movwf	?___wmul+1
  3696  0318  0874               	movf	___wmul@product,w
  3697  0319  00F0               	movwf	?___wmul
  3698  031A  0008               	return
  3699  031B                     __end_of___wmul:	
  3700                           
  3701                           	psect	text7
  3702  037C                     __ptext7:	
  3703 ;; *************** function ___lwmod *****************
  3704 ;; Defined at:
  3705 ;;		line 6 in file "/Applications/microchip/xc8/v1.38/sources/common/lwmod.c"
  3706 ;; Parameters:    Size  Location     Type
  3707 ;;  divisor         2    8[COMMON] unsigned int 
  3708 ;;  dividend        2   10[COMMON] unsigned int 
  3709 ;; Auto vars:     Size  Location     Type
  3710 ;;  counter         1   13[COMMON] unsigned char 
  3711 ;; Return value:  Size  Location     Type
  3712 ;;                  2    8[COMMON] unsigned int 
  3713 ;; Registers used:
  3714 ;;		wreg, status,2, status,0
  3715 ;; Tracked objects:
  3716 ;;		On entry : 0/0
  3717 ;;		On exit  : 0/0
  3718 ;;		Unchanged: 0/0
  3719 ;; Data sizes:     COMMON   BANK0   BANK1   BANK2   BANK3   BANK4   BANK5   BANK6
  3720 ;;      Params:         4       0       0       0       0       0       0       0
  3721 ;;      Locals:         1       0       0       0       0       0       0       0
  3722 ;;      Temps:          1       0       0       0       0       0       0       0
  3723 ;;      Totals:         6       0       0       0       0       0       0       0
  3724 ;;Total ram usage:        6 bytes
  3725 ;; Hardware stack levels used:    1
  3726 ;; This function calls:
  3727 ;;		Nothing
  3728 ;; This function is called by:
  3729 ;;		_printf
  3730 ;; This function uses a non-reentrant model
  3731 ;;
  3732                           
  3733                           
  3734                           ;psect for function ___lwmod
  3735  037C                     ___lwmod:	
  3736                           
  3737                           ;incstack = 0
  3738                           ; Regs used in ___lwmod: [wreg+status,2+status,0]
  3739  037C  0878               	movf	___lwmod@divisor,w
  3740  037D  0479               	iorwf	___lwmod@divisor+1,w
  3741  037E  1903               	btfsc	3,2
  3742  037F  2BA3               	goto	l1285
  3743  0380  01FD               	clrf	___lwmod@counter
  3744  0381  0AFD               	incf	___lwmod@counter,f
  3745  0382                     l1275:	
  3746  0382  1BF9               	btfsc	___lwmod@divisor+1,7
  3747  0383  2B8E               	goto	l1277
  3748  0384  3001               	movlw	1
  3749  0385                     u795:	
  3750  0385  35F8               	lslf	___lwmod@divisor,f
  3751  0386  0DF9               	rlf	___lwmod@divisor+1,f
  3752  0387  0B89               	decfsz	9,f
  3753  0388  2B85               	goto	u795
  3754  0389  3001               	movlw	1
  3755  038A  00FC               	movwf	??___lwmod
  3756  038B  087C               	movf	??___lwmod,w
  3757  038C  07FD               	addwf	___lwmod@counter,f
  3758  038D  2B82               	goto	l1275
  3759  038E                     l1277:	
  3760  038E  0879               	movf	___lwmod@divisor+1,w
  3761  038F  027B               	subwf	___lwmod@dividend+1,w
  3762  0390  1D03               	skipz
  3763  0391  2B94               	goto	u815
  3764  0392  0878               	movf	___lwmod@divisor,w
  3765  0393  027A               	subwf	___lwmod@dividend,w
  3766  0394                     u815:	
  3767  0394  1C03               	skipc
  3768  0395  2B9A               	goto	l1281
  3769  0396  0878               	movf	___lwmod@divisor,w
  3770  0397  02FA               	subwf	___lwmod@dividend,f
  3771  0398  0879               	movf	___lwmod@divisor+1,w
  3772  0399  3BFB               	subwfb	___lwmod@dividend+1,f
  3773  039A                     l1281:	
  3774  039A  3001               	movlw	1
  3775  039B                     u825:	
  3776  039B  36F9               	lsrf	___lwmod@divisor+1,f
  3777  039C  0CF8               	rrf	___lwmod@divisor,f
  3778  039D  0B89               	decfsz	9,f
  3779  039E  2B9B               	goto	u825
  3780  039F  3001               	movlw	1
  3781  03A0  02FD               	subwf	___lwmod@counter,f
  3782  03A1  1D03               	btfss	3,2
  3783  03A2  2B8E               	goto	l1277
  3784  03A3                     l1285:	
  3785  03A3  087B               	movf	___lwmod@dividend+1,w
  3786  03A4  00F9               	movwf	?___lwmod+1
  3787  03A5  087A               	movf	___lwmod@dividend,w
  3788  03A6  00F8               	movwf	?___lwmod
  3789  03A7  0008               	return
  3790  03A8                     __end_of___lwmod:	
  3791                           
  3792                           	psect	text8
  3793  03A8                     __ptext8:	
  3794 ;; *************** function ___lwdiv *****************
  3795 ;; Defined at:
  3796 ;;		line 6 in file "/Applications/microchip/xc8/v1.38/sources/common/lwdiv.c"
  3797 ;; Parameters:    Size  Location     Type
  3798 ;;  divisor         2    0[COMMON] unsigned int 
  3799 ;;  dividend        2    2[COMMON] unsigned int 
  3800 ;; Auto vars:     Size  Location     Type
  3801 ;;  quotient        2    5[COMMON] unsigned int 
  3802 ;;  counter         1    7[COMMON] unsigned char 
  3803 ;; Return value:  Size  Location     Type
  3804 ;;                  2    0[COMMON] unsigned int 
  3805 ;; Registers used:
  3806 ;;		wreg, status,2, status,0
  3807 ;; Tracked objects:
  3808 ;;		On entry : 0/0
  3809 ;;		On exit  : 0/0
  3810 ;;		Unchanged: 0/0
  3811 ;; Data sizes:     COMMON   BANK0   BANK1   BANK2   BANK3   BANK4   BANK5   BANK6
  3812 ;;      Params:         4       0       0       0       0       0       0       0
  3813 ;;      Locals:         3       0       0       0       0       0       0       0
  3814 ;;      Temps:          1       0       0       0       0       0       0       0
  3815 ;;      Totals:         8       0       0       0       0       0       0       0
  3816 ;;Total ram usage:        8 bytes
  3817 ;; Hardware stack levels used:    1
  3818 ;; This function calls:
  3819 ;;		Nothing
  3820 ;; This function is called by:
  3821 ;;		_printf
  3822 ;; This function uses a non-reentrant model
  3823 ;;
  3824                           
  3825                           
  3826                           ;psect for function ___lwdiv
  3827  03A8                     ___lwdiv:	
  3828                           
  3829                           ;incstack = 0
  3830                           ; Regs used in ___lwdiv: [wreg+status,2+status,0]
  3831  03A8  01F5               	clrf	___lwdiv@quotient
  3832  03A9  01F6               	clrf	___lwdiv@quotient+1
  3833  03AA  0870               	movf	___lwdiv@divisor,w
  3834  03AB  0471               	iorwf	___lwdiv@divisor+1,w
  3835  03AC  1903               	btfsc	3,2
  3836  03AD  2BD7               	goto	l1263
  3837  03AE  01F7               	clrf	___lwdiv@counter
  3838  03AF  0AF7               	incf	___lwdiv@counter,f
  3839  03B0                     l1251:	
  3840  03B0  1BF1               	btfsc	___lwdiv@divisor+1,7
  3841  03B1  2BBC               	goto	l1253
  3842  03B2  3001               	movlw	1
  3843  03B3                     u725:	
  3844  03B3  35F0               	lslf	___lwdiv@divisor,f
  3845  03B4  0DF1               	rlf	___lwdiv@divisor+1,f
  3846  03B5  0B89               	decfsz	9,f
  3847  03B6  2BB3               	goto	u725
  3848  03B7  3001               	movlw	1
  3849  03B8  00F4               	movwf	??___lwdiv
  3850  03B9  0874               	movf	??___lwdiv,w
  3851  03BA  07F7               	addwf	___lwdiv@counter,f
  3852  03BB  2BB0               	goto	l1251
  3853  03BC                     l1253:	
  3854  03BC  3001               	movlw	1
  3855  03BD                     u745:	
  3856  03BD  35F5               	lslf	___lwdiv@quotient,f
  3857  03BE  0DF6               	rlf	___lwdiv@quotient+1,f
  3858  03BF  0B89               	decfsz	9,f
  3859  03C0  2BBD               	goto	u745
  3860  03C1  0871               	movf	___lwdiv@divisor+1,w
  3861  03C2  0273               	subwf	___lwdiv@dividend+1,w
  3862  03C3  1D03               	skipz
  3863  03C4  2BC7               	goto	u755
  3864  03C5  0870               	movf	___lwdiv@divisor,w
  3865  03C6  0272               	subwf	___lwdiv@dividend,w
  3866  03C7                     u755:	
  3867  03C7  1C03               	skipc
  3868  03C8  2BCE               	goto	l1259
  3869  03C9  0870               	movf	___lwdiv@divisor,w
  3870  03CA  02F2               	subwf	___lwdiv@dividend,f
  3871  03CB  0871               	movf	___lwdiv@divisor+1,w
  3872  03CC  3BF3               	subwfb	___lwdiv@dividend+1,f
  3873  03CD  1475               	bsf	___lwdiv@quotient,0
  3874  03CE                     l1259:	
  3875  03CE  3001               	movlw	1
  3876  03CF                     u765:	
  3877  03CF  36F1               	lsrf	___lwdiv@divisor+1,f
  3878  03D0  0CF0               	rrf	___lwdiv@divisor,f
  3879  03D1  0B89               	decfsz	9,f
  3880  03D2  2BCF               	goto	u765
  3881  03D3  3001               	movlw	1
  3882  03D4  02F7               	subwf	___lwdiv@counter,f
  3883  03D5  1D03               	btfss	3,2
  3884  03D6  2BBC               	goto	l1253
  3885  03D7                     l1263:	
  3886  03D7  0876               	movf	___lwdiv@quotient+1,w
  3887  03D8  00F1               	movwf	?___lwdiv+1
  3888  03D9  0875               	movf	___lwdiv@quotient,w
  3889  03DA  00F0               	movwf	?___lwdiv
  3890  03DB  0008               	return
  3891  03DC                     __end_of___lwdiv:	
  3892                           
  3893                           	psect	text9
  3894  02D9                     __ptext9:	
  3895 ;; *************** function _escribe_rtc *****************
  3896 ;; Defined at:
  3897 ;;		line 9 in file "main.c"
  3898 ;; Parameters:    Size  Location     Type
  3899 ;;  direccion       1    wreg     unsigned char 
  3900 ;;  dato            1    1[COMMON] unsigned char 
  3901 ;; Auto vars:     Size  Location     Type
  3902 ;;  direccion       1    2[COMMON] unsigned char 
  3903 ;; Return value:  Size  Location     Type
  3904 ;;                  1    wreg      void 
  3905 ;; Registers used:
  3906 ;;		wreg, status,2, status,0, pclath, cstack
  3907 ;; Tracked objects:
  3908 ;;		On entry : 0/0
  3909 ;;		On exit  : 0/0
  3910 ;;		Unchanged: 0/0
  3911 ;; Data sizes:     COMMON   BANK0   BANK1   BANK2   BANK3   BANK4   BANK5   BANK6
  3912 ;;      Params:         1       0       0       0       0       0       0       0
  3913 ;;      Locals:         1       0       0       0       0       0       0       0
  3914 ;;      Temps:          0       0       0       0       0       0       0       0
  3915 ;;      Totals:         2       0       0       0       0       0       0       0
  3916 ;;Total ram usage:        2 bytes
  3917 ;; Hardware stack levels used:    1
  3918 ;; Hardware stack levels required when called:    2
  3919 ;; This function calls:
  3920 ;;		_i2c_detener
  3921 ;;		_i2c_envia_dato
  3922 ;;		_i2c_inicia_com
  3923 ;; This function is called by:
  3924 ;;		_setReloj
  3925 ;; This function uses a non-reentrant model
  3926 ;;
  3927                           
  3928                           
  3929                           ;psect for function _escribe_rtc
  3930  02D9                     _escribe_rtc:	
  3931                           
  3932                           ;incstack = 0
  3933                           ; Regs used in _escribe_rtc: [wreg+status,2+status,0+pclath+cstack]
  3934                           ;escribe_rtc@direccion stored from wreg
  3935  02D9  00F2               	movwf	escribe_rtc@direccion
  3936                           
  3937                           ;main.c: 10: i2c_inicia_com();
  3938  02DA  3182  2262  3182   	fcall	_i2c_inicia_com
  3939                           
  3940                           ;main.c: 11: i2c_envia_dato(0xD0);
  3941  02DD  30D0               	movlw	208
  3942  02DE  3182  2277  3182   	fcall	_i2c_envia_dato
  3943                           
  3944                           ;main.c: 12: i2c_envia_dato(direccion);
  3945  02E1  0872               	movf	escribe_rtc@direccion,w
  3946  02E2  3182  2277  3182   	fcall	_i2c_envia_dato
  3947                           
  3948                           ;main.c: 13: i2c_envia_dato(dato);
  3949  02E5  0871               	movf	escribe_rtc@dato,w
  3950  02E6  3182  2277  3182   	fcall	_i2c_envia_dato
  3951                           
  3952                           ;main.c: 14: i2c_detener();
  3953  02E9  3182  225D         	fcall	_i2c_detener
  3954  02EB  0008               	return
  3955  02EC                     __end_of_escribe_rtc:	
  3956                           
  3957                           	psect	text10
  3958  02AE                     __ptext10:	
  3959 ;; *************** function _EUSART_Read *****************
  3960 ;; Defined at:
  3961 ;;		line 77 in file "mcc_generated_files/eusart.c"
  3962 ;; Parameters:    Size  Location     Type
  3963 ;;		None
  3964 ;; Auto vars:     Size  Location     Type
  3965 ;;		None
  3966 ;; Return value:  Size  Location     Type
  3967 ;;                  1    wreg      unsigned char 
  3968 ;; Registers used:
  3969 ;;		wreg
  3970 ;; Tracked objects:
  3971 ;;		On entry : 0/0
  3972 ;;		On exit  : 0/0
  3973 ;;		Unchanged: 0/0
  3974 ;; Data sizes:     COMMON   BANK0   BANK1   BANK2   BANK3   BANK4   BANK5   BANK6
  3975 ;;      Params:         0       0       0       0       0       0       0       0
  3976 ;;      Locals:         0       0       0       0       0       0       0       0
  3977 ;;      Temps:          0       0       0       0       0       0       0       0
  3978 ;;      Totals:         0       0       0       0       0       0       0       0
  3979 ;;Total ram usage:        0 bytes
  3980 ;; Hardware stack levels used:    1
  3981 ;; This function calls:
  3982 ;;		Nothing
  3983 ;; This function is called by:
  3984 ;;		_setReloj
  3985 ;;		_getch
  3986 ;; This function uses a non-reentrant model
  3987 ;;
  3988                           
  3989                           
  3990                           ;psect for function _EUSART_Read
  3991  02AE                     _EUSART_Read:	
  3992                           
  3993                           ;eusart.c: 80: RCSTAbits.SREN = 1;
  3994                           
  3995                           ;incstack = 0
  3996                           ; Regs used in _EUSART_Read: [wreg]
  3997  02AE  0023               	movlb	3	; select bank3
  3998  02AF  169D               	bsf	29,5	;volatile
  3999  02B0                     l104:	
  4000                           ;eusart.c: 82: {
  4001                           
  4002                           ;eusart.c: 81: while(!PIR1bits.RCIF)
  4003                           
  4004  02B0  0020               	movlb	0	; select bank0
  4005  02B1  1E91               	btfss	17,5	;volatile
  4006  02B2  2AB0               	goto	l104
  4007                           
  4008                           ;eusart.c: 83: }
  4009                           ;eusart.c: 86: if(1 == RCSTAbits.OERR)
  4010  02B3  0023               	movlb	3	; select bank3
  4011  02B4  1C9D               	btfss	29,1	;volatile
  4012  02B5  2AB8               	goto	l1313
  4013                           
  4014                           ;eusart.c: 87: {
  4015                           ;eusart.c: 90: RCSTAbits.SPEN = 0;
  4016  02B6  139D               	bcf	29,7	;volatile
  4017                           
  4018                           ;eusart.c: 91: RCSTAbits.SPEN = 1;
  4019  02B7  179D               	bsf	29,7	;volatile
  4020  02B8                     l1313:	
  4021                           
  4022                           ;eusart.c: 92: }
  4023                           ;eusart.c: 94: return RCREG;
  4024  02B8  0819               	movf	25,w	;volatile
  4025  02B9  0008               	return
  4026  02BA                     __end_of_EUSART_Read:	
  4027                           
  4028                           	psect	text11
  4029  0338                     __ptext11:	
  4030 ;; *************** function _leer_rtc *****************
  4031 ;; Defined at:
  4032 ;;		line 20 in file "main.c"
  4033 ;; Parameters:    Size  Location     Type
  4034 ;;  direccion       1    wreg     unsigned char 
  4035 ;; Auto vars:     Size  Location     Type
  4036 ;;  direccion       1    3[COMMON] unsigned char 
  4037 ;;  dato            1    4[COMMON] unsigned char 
  4038 ;; Return value:  Size  Location     Type
  4039 ;;                  1    wreg      unsigned char 
  4040 ;; Registers used:
  4041 ;;		wreg, status,2, status,0, pclath, cstack
  4042 ;; Tracked objects:
  4043 ;;		On entry : 0/0
  4044 ;;		On exit  : 0/0
  4045 ;;		Unchanged: 0/0
  4046 ;; Data sizes:     COMMON   BANK0   BANK1   BANK2   BANK3   BANK4   BANK5   BANK6
  4047 ;;      Params:         0       0       0       0       0       0       0       0
  4048 ;;      Locals:         2       0       0       0       0       0       0       0
  4049 ;;      Temps:          1       0       0       0       0       0       0       0
  4050 ;;      Totals:         3       0       0       0       0       0       0       0
  4051 ;;Total ram usage:        3 bytes
  4052 ;; Hardware stack levels used:    1
  4053 ;; Hardware stack levels required when called:    2
  4054 ;; This function calls:
  4055 ;;		_i2c_detener
  4056 ;;		_i2c_envia_dato
  4057 ;;		_i2c_inicia_com
  4058 ;;		_i2c_recibe_dato
  4059 ;;		_i2c_reinicia_com
  4060 ;; This function is called by:
  4061 ;;		_main
  4062 ;; This function uses a non-reentrant model
  4063 ;;
  4064                           
  4065                           
  4066                           ;psect for function _leer_rtc
  4067  0338                     _leer_rtc:	
  4068                           
  4069                           ;incstack = 0
  4070                           ; Regs used in _leer_rtc: [wreg+status,2+status,0+pclath+cstack]
  4071                           ;leer_rtc@direccion stored from wreg
  4072  0338  00F3               	movwf	leer_rtc@direccion
  4073                           
  4074                           ;main.c: 21: unsigned char dato;
  4075                           ;main.c: 22: i2c_inicia_com();
  4076  0339  3182  2262  3183   	fcall	_i2c_inicia_com
  4077                           
  4078                           ;main.c: 23: i2c_envia_dato(0xD0);
  4079  033C  30D0               	movlw	208
  4080  033D  3182  2277  3183   	fcall	_i2c_envia_dato
  4081                           
  4082                           ;main.c: 24: i2c_envia_dato(direccion);
  4083  0340  0873               	movf	leer_rtc@direccion,w
  4084  0341  3182  2277  3183   	fcall	_i2c_envia_dato
  4085                           
  4086                           ;main.c: 25: i2c_reinicia_com();
  4087  0344  3182  2267  3183   	fcall	_i2c_reinicia_com
  4088                           
  4089                           ;main.c: 26: i2c_envia_dato(0xD1);
  4090  0347  30D1               	movlw	209
  4091  0348  3182  2277  3183   	fcall	_i2c_envia_dato
  4092                           
  4093                           ;main.c: 27: dato = i2c_recibe_dato();
  4094  034B  3182  22EC  3183   	fcall	_i2c_recibe_dato
  4095  034E  00F2               	movwf	??_leer_rtc
  4096  034F  0872               	movf	??_leer_rtc,w
  4097  0350  00F4               	movwf	leer_rtc@dato
  4098                           
  4099                           ;main.c: 28: i2c_detener();
  4100  0351  3182  225D         	fcall	_i2c_detener
  4101                           
  4102                           ;main.c: 29: return dato;
  4103  0353  0874               	movf	leer_rtc@dato,w
  4104  0354  0008               	return
  4105  0355                     __end_of_leer_rtc:	
  4106                           
  4107                           	psect	text12
  4108  0267                     __ptext12:	
  4109 ;; *************** function _i2c_reinicia_com *****************
  4110 ;; Defined at:
  4111 ;;		line 37 in file "I2C.h"
  4112 ;; Parameters:    Size  Location     Type
  4113 ;;		None
  4114 ;; Auto vars:     Size  Location     Type
  4115 ;;		None
  4116 ;; Return value:  Size  Location     Type
  4117 ;;                  1    wreg      void 
  4118 ;; Registers used:
  4119 ;;		wreg, status,2, status,0, pclath, cstack
  4120 ;; Tracked objects:
  4121 ;;		On entry : 0/0
  4122 ;;		On exit  : 0/0
  4123 ;;		Unchanged: 0/0
  4124 ;; Data sizes:     COMMON   BANK0   BANK1   BANK2   BANK3   BANK4   BANK5   BANK6
  4125 ;;      Params:         0       0       0       0       0       0       0       0
  4126 ;;      Locals:         0       0       0       0       0       0       0       0
  4127 ;;      Temps:          0       0       0       0       0       0       0       0
  4128 ;;      Totals:         0       0       0       0       0       0       0       0
  4129 ;;Total ram usage:        0 bytes
  4130 ;; Hardware stack levels used:    1
  4131 ;; Hardware stack levels required when called:    1
  4132 ;; This function calls:
  4133 ;;		_i2c_espera
  4134 ;; This function is called by:
  4135 ;;		_leer_rtc
  4136 ;; This function uses a non-reentrant model
  4137 ;;
  4138                           
  4139                           
  4140                           ;psect for function _i2c_reinicia_com
  4141  0267                     _i2c_reinicia_com:	
  4142                           
  4143                           ;I2C.h: 38: i2c_espera();
  4144                           
  4145                           ;incstack = 0
  4146                           ; Regs used in _i2c_reinicia_com: [wreg+status,2+status,0+pclath+cstack]
  4147  0267  3182  227E         	fcall	_i2c_espera
  4148                           
  4149                           ;I2C.h: 39: SSPCON2bits.RSEN = 1;
  4150  0269  0024               	movlb	4	; select bank4
  4151  026A  1496               	bsf	22,1	;volatile
  4152  026B  0008               	return
  4153  026C                     __end_of_i2c_reinicia_com:	
  4154                           
  4155                           	psect	text13
  4156  02EC                     __ptext13:	
  4157 ;; *************** function _i2c_recibe_dato *****************
  4158 ;; Defined at:
  4159 ;;		line 68 in file "I2C.h"
  4160 ;; Parameters:    Size  Location     Type
  4161 ;;		None
  4162 ;; Auto vars:     Size  Location     Type
  4163 ;;  datoleido       1    1[COMMON] unsigned char 
  4164 ;; Return value:  Size  Location     Type
  4165 ;;                  1    wreg      unsigned char 
  4166 ;; Registers used:
  4167 ;;		wreg, status,2, status,0, pclath, cstack
  4168 ;; Tracked objects:
  4169 ;;		On entry : 0/0
  4170 ;;		On exit  : 0/0
  4171 ;;		Unchanged: 0/0
  4172 ;; Data sizes:     COMMON   BANK0   BANK1   BANK2   BANK3   BANK4   BANK5   BANK6
  4173 ;;      Params:         0       0       0       0       0       0       0       0
  4174 ;;      Locals:         1       0       0       0       0       0       0       0
  4175 ;;      Temps:          1       0       0       0       0       0       0       0
  4176 ;;      Totals:         2       0       0       0       0       0       0       0
  4177 ;;Total ram usage:        2 bytes
  4178 ;; Hardware stack levels used:    1
  4179 ;; Hardware stack levels required when called:    1
  4180 ;; This function calls:
  4181 ;;		_i2c_espera
  4182 ;; This function is called by:
  4183 ;;		_leer_rtc
  4184 ;; This function uses a non-reentrant model
  4185 ;;
  4186                           
  4187                           
  4188                           ;psect for function _i2c_recibe_dato
  4189  02EC                     _i2c_recibe_dato:	
  4190                           
  4191                           ;I2C.h: 70: unsigned char datoleido;
  4192                           ;I2C.h: 73: i2c_espera();
  4193                           
  4194                           ;incstack = 0
  4195                           ; Regs used in _i2c_recibe_dato: [wreg+status,2+status,0+pclath+cstack]
  4196  02EC  3182  227E  3182   	fcall	_i2c_espera
  4197                           
  4198                           ;I2C.h: 74: SSPCON2bits.RCEN = 1;
  4199  02EF  0024               	movlb	4	; select bank4
  4200  02F0  1596               	bsf	22,3	;volatile
  4201                           
  4202                           ;I2C.h: 78: i2c_espera();
  4203  02F1  3182  227E  3182   	fcall	_i2c_espera
  4204                           
  4205                           ;I2C.h: 79: datoleido = SSPBUF;
  4206  02F4  0024               	movlb	4	; select bank4
  4207  02F5  0811               	movf	17,w	;volatile
  4208  02F6  00F0               	movwf	??_i2c_recibe_dato
  4209  02F7  0870               	movf	??_i2c_recibe_dato,w
  4210  02F8  00F1               	movwf	i2c_recibe_dato@datoleido
  4211                           
  4212                           ;I2C.h: 82: i2c_espera();
  4213  02F9  3182  227E         	fcall	_i2c_espera
  4214                           
  4215                           ;I2C.h: 84: SSPCON2bits.ACKDT = 1;
  4216  02FB  0024               	movlb	4	; select bank4
  4217  02FC  1696               	bsf	22,5	;volatile
  4218                           
  4219                           ;I2C.h: 89: SSPCON2bits.ACKEN = 1;
  4220  02FD  1616               	bsf	22,4	;volatile
  4221                           
  4222                           ;I2C.h: 93: return datoleido;
  4223  02FE  0871               	movf	i2c_recibe_dato@datoleido,w
  4224  02FF  0008               	return
  4225  0300                     __end_of_i2c_recibe_dato:	
  4226                           
  4227                           	psect	text14
  4228  0262                     __ptext14:	
  4229 ;; *************** function _i2c_inicia_com *****************
  4230 ;; Defined at:
  4231 ;;		line 28 in file "I2C.h"
  4232 ;; Parameters:    Size  Location     Type
  4233 ;;		None
  4234 ;; Auto vars:     Size  Location     Type
  4235 ;;		None
  4236 ;; Return value:  Size  Location     Type
  4237 ;;                  1    wreg      void 
  4238 ;; Registers used:
  4239 ;;		wreg, status,2, status,0, pclath, cstack
  4240 ;; Tracked objects:
  4241 ;;		On entry : 0/0
  4242 ;;		On exit  : 0/0
  4243 ;;		Unchanged: 0/0
  4244 ;; Data sizes:     COMMON   BANK0   BANK1   BANK2   BANK3   BANK4   BANK5   BANK6
  4245 ;;      Params:         0       0       0       0       0       0       0       0
  4246 ;;      Locals:         0       0       0       0       0       0       0       0
  4247 ;;      Temps:          0       0       0       0       0       0       0       0
  4248 ;;      Totals:         0       0       0       0       0       0       0       0
  4249 ;;Total ram usage:        0 bytes
  4250 ;; Hardware stack levels used:    1
  4251 ;; Hardware stack levels required when called:    1
  4252 ;; This function calls:
  4253 ;;		_i2c_espera
  4254 ;; This function is called by:
  4255 ;;		_escribe_rtc
  4256 ;;		_leer_rtc
  4257 ;; This function uses a non-reentrant model
  4258 ;;
  4259                           
  4260                           
  4261                           ;psect for function _i2c_inicia_com
  4262  0262                     _i2c_inicia_com:	
  4263                           
  4264                           ;I2C.h: 29: i2c_espera();
  4265                           
  4266                           ;incstack = 0
  4267                           ; Regs used in _i2c_inicia_com: [wreg+status,2+status,0+pclath+cstack]
  4268  0262  3182  227E         	fcall	_i2c_espera
  4269                           
  4270                           ;I2C.h: 30: SSPCON2bits.SEN = 1;
  4271  0264  0024               	movlb	4	; select bank4
  4272  0265  1416               	bsf	22,0	;volatile
  4273  0266  0008               	return
  4274  0267                     __end_of_i2c_inicia_com:	
  4275                           
  4276                           	psect	text15
  4277  0277                     __ptext15:	
  4278 ;; *************** function _i2c_envia_dato *****************
  4279 ;; Defined at:
  4280 ;;		line 57 in file "I2C.h"
  4281 ;; Parameters:    Size  Location     Type
  4282 ;;  dato            1    wreg     unsigned char 
  4283 ;; Auto vars:     Size  Location     Type
  4284 ;;  dato            1    0[COMMON] unsigned char 
  4285 ;; Return value:  Size  Location     Type
  4286 ;;                  1    wreg      unsigned char 
  4287 ;; Registers used:
  4288 ;;		wreg, status,2, status,0, pclath, cstack
  4289 ;; Tracked objects:
  4290 ;;		On entry : 0/0
  4291 ;;		On exit  : 0/0
  4292 ;;		Unchanged: 0/0
  4293 ;; Data sizes:     COMMON   BANK0   BANK1   BANK2   BANK3   BANK4   BANK5   BANK6
  4294 ;;      Params:         0       0       0       0       0       0       0       0
  4295 ;;      Locals:         1       0       0       0       0       0       0       0
  4296 ;;      Temps:          0       0       0       0       0       0       0       0
  4297 ;;      Totals:         1       0       0       0       0       0       0       0
  4298 ;;Total ram usage:        1 bytes
  4299 ;; Hardware stack levels used:    1
  4300 ;; Hardware stack levels required when called:    1
  4301 ;; This function calls:
  4302 ;;		_i2c_espera
  4303 ;; This function is called by:
  4304 ;;		_escribe_rtc
  4305 ;;		_leer_rtc
  4306 ;; This function uses a non-reentrant model
  4307 ;;
  4308                           
  4309                           
  4310                           ;psect for function _i2c_envia_dato
  4311  0277                     _i2c_envia_dato:	
  4312                           
  4313                           ;incstack = 0
  4314                           ; Regs used in _i2c_envia_dato: [wreg+status,2+status,0+pclath+cstack]
  4315                           ;i2c_envia_dato@dato stored from wreg
  4316  0277  00F0               	movwf	i2c_envia_dato@dato
  4317                           
  4318                           ;I2C.h: 58: i2c_espera();
  4319  0278  3182  227E         	fcall	_i2c_espera
  4320                           
  4321                           ;I2C.h: 59: SSPBUF = dato;
  4322  027A  0870               	movf	i2c_envia_dato@dato,w
  4323  027B  0024               	movlb	4	; select bank4
  4324  027C  0091               	movwf	17	;volatile
  4325                           
  4326                           ;I2C.h: 60: return ACKSTAT;
  4327                           ;	Return value of _i2c_envia_dato is never used
  4328  027D  0008               	return
  4329  027E                     __end_of_i2c_envia_dato:	
  4330                           
  4331                           	psect	text16
  4332  025D                     __ptext16:	
  4333 ;; *************** function _i2c_detener *****************
  4334 ;; Defined at:
  4335 ;;		line 46 in file "I2C.h"
  4336 ;; Parameters:    Size  Location     Type
  4337 ;;		None
  4338 ;; Auto vars:     Size  Location     Type
  4339 ;;		None
  4340 ;; Return value:  Size  Location     Type
  4341 ;;                  1    wreg      void 
  4342 ;; Registers used:
  4343 ;;		wreg, status,2, status,0, pclath, cstack
  4344 ;; Tracked objects:
  4345 ;;		On entry : 0/0
  4346 ;;		On exit  : 0/0
  4347 ;;		Unchanged: 0/0
  4348 ;; Data sizes:     COMMON   BANK0   BANK1   BANK2   BANK3   BANK4   BANK5   BANK6
  4349 ;;      Params:         0       0       0       0       0       0       0       0
  4350 ;;      Locals:         0       0       0       0       0       0       0       0
  4351 ;;      Temps:          0       0       0       0       0       0       0       0
  4352 ;;      Totals:         0       0       0       0       0       0       0       0
  4353 ;;Total ram usage:        0 bytes
  4354 ;; Hardware stack levels used:    1
  4355 ;; Hardware stack levels required when called:    1
  4356 ;; This function calls:
  4357 ;;		_i2c_espera
  4358 ;; This function is called by:
  4359 ;;		_escribe_rtc
  4360 ;;		_leer_rtc
  4361 ;; This function uses a non-reentrant model
  4362 ;;
  4363                           
  4364                           
  4365                           ;psect for function _i2c_detener
  4366  025D                     _i2c_detener:	
  4367                           
  4368                           ;I2C.h: 47: i2c_espera();
  4369                           
  4370                           ;incstack = 0
  4371                           ; Regs used in _i2c_detener: [wreg+status,2+status,0+pclath+cstack]
  4372  025D  3182  227E         	fcall	_i2c_espera
  4373                           
  4374                           ;I2C.h: 48: SSPCON2bits.PEN = 1;
  4375  025F  0024               	movlb	4	; select bank4
  4376  0260  1516               	bsf	22,2	;volatile
  4377  0261  0008               	return
  4378  0262                     __end_of_i2c_detener:	
  4379                           
  4380                           	psect	text17
  4381  027E                     __ptext17:	
  4382 ;; *************** function _i2c_espera *****************
  4383 ;; Defined at:
  4384 ;;		line 20 in file "I2C.h"
  4385 ;; Parameters:    Size  Location     Type
  4386 ;;		None
  4387 ;; Auto vars:     Size  Location     Type
  4388 ;;		None
  4389 ;; Return value:  Size  Location     Type
  4390 ;;                  1    wreg      void 
  4391 ;; Registers used:
  4392 ;;		wreg, status,2
  4393 ;; Tracked objects:
  4394 ;;		On entry : 0/0
  4395 ;;		On exit  : 0/0
  4396 ;;		Unchanged: 0/0
  4397 ;; Data sizes:     COMMON   BANK0   BANK1   BANK2   BANK3   BANK4   BANK5   BANK6
  4398 ;;      Params:         0       0       0       0       0       0       0       0
  4399 ;;      Locals:         0       0       0       0       0       0       0       0
  4400 ;;      Temps:          0       0       0       0       0       0       0       0
  4401 ;;      Totals:         0       0       0       0       0       0       0       0
  4402 ;;Total ram usage:        0 bytes
  4403 ;; Hardware stack levels used:    1
  4404 ;; This function calls:
  4405 ;;		Nothing
  4406 ;; This function is called by:
  4407 ;;		_i2c_inicia_com
  4408 ;;		_i2c_reinicia_com
  4409 ;;		_i2c_detener
  4410 ;;		_i2c_envia_dato
  4411 ;;		_i2c_recibe_dato
  4412 ;; This function uses a non-reentrant model
  4413 ;;
  4414                           
  4415                           
  4416                           ;psect for function _i2c_espera
  4417  027E                     _i2c_espera:	
  4418  027E                     l1189:	
  4419                           ;I2C.h: 21: while((SSPCON2 & 0b00011111) || (SSPSTAT & 0b00000100));
  4420                           
  4421                           ;incstack = 0
  4422                           ; Regs used in _i2c_espera: [wreg+status,2]
  4423                           
  4424  027E  0024               	movlb	4	; select bank4
  4425  027F  0816               	movf	22,w	;volatile
  4426  0280  391F               	andlw	31
  4427  0281  1D03               	btfss	3,2
  4428  0282  2A7E               	goto	l1189
  4429  0283  1D14               	btfss	20,2	;volatile
  4430  0284  0008               	return
  4431  0285  2A7E               	goto	l1189
  4432  0286                     __end_of_i2c_espera:	
  4433                           
  4434                           	psect	text18
  4435  02A2                     __ptext18:	
  4436 ;; *************** function _i2c_iniciar *****************
  4437 ;; Defined at:
  4438 ;;		line 4 in file "I2C.h"
  4439 ;; Parameters:    Size  Location     Type
  4440 ;;		None
  4441 ;; Auto vars:     Size  Location     Type
  4442 ;;		None
  4443 ;; Return value:  Size  Location     Type
  4444 ;;                  1    wreg      void 
  4445 ;; Registers used:
  4446 ;;		wreg, status,2
  4447 ;; Tracked objects:
  4448 ;;		On entry : 0/0
  4449 ;;		On exit  : 0/0
  4450 ;;		Unchanged: 0/0
  4451 ;; Data sizes:     COMMON   BANK0   BANK1   BANK2   BANK3   BANK4   BANK5   BANK6
  4452 ;;      Params:         0       0       0       0       0       0       0       0
  4453 ;;      Locals:         0       0       0       0       0       0       0       0
  4454 ;;      Temps:          0       0       0       0       0       0       0       0
  4455 ;;      Totals:         0       0       0       0       0       0       0       0
  4456 ;;Total ram usage:        0 bytes
  4457 ;; Hardware stack levels used:    1
  4458 ;; This function calls:
  4459 ;;		Nothing
  4460 ;; This function is called by:
  4461 ;;		_main
  4462 ;; This function uses a non-reentrant model
  4463 ;;
  4464                           
  4465                           
  4466                           ;psect for function _i2c_iniciar
  4467  02A2                     _i2c_iniciar:	
  4468                           
  4469                           ;I2C.h: 5: TRISCbits.TRISC3=1;
  4470                           
  4471                           ;incstack = 0
  4472                           ; Regs used in _i2c_iniciar: [wreg+status,2]
  4473  02A2  0021               	movlb	1	; select bank1
  4474  02A3  158E               	bsf	14,3	;volatile
  4475                           
  4476                           ;I2C.h: 6: TRISCbits.TRISC4=1;
  4477  02A4  160E               	bsf	14,4	;volatile
  4478                           
  4479                           ;I2C.h: 7: SSPSTAT=0b10000000;
  4480  02A5  3080               	movlw	128
  4481  02A6  0024               	movlb	4	; select bank4
  4482  02A7  0094               	movwf	20	;volatile
  4483                           
  4484                           ;I2C.h: 8: SSPCON=0b00101000;
  4485  02A8  3028               	movlw	40
  4486  02A9  0095               	movwf	21	;volatile
  4487                           
  4488                           ;I2C.h: 9: SSPCON2=0b00000000;
  4489  02AA  0196               	clrf	22	;volatile
  4490                           
  4491                           ;I2C.h: 10: SSPADD=49;
  4492  02AB  3031               	movlw	49
  4493  02AC  0092               	movwf	18	;volatile
  4494  02AD  0008               	return
  4495  02AE                     __end_of_i2c_iniciar:	
  4496                           
  4497                           	psect	text19
  4498  031B                     __ptext19:	
  4499 ;; *************** function _convertirDato *****************
  4500 ;; Defined at:
  4501 ;;		line 58 in file "main.c"
  4502 ;; Parameters:    Size  Location     Type
  4503 ;;  dato            1    wreg     unsigned char 
  4504 ;; Auto vars:     Size  Location     Type
  4505 ;;  dato            1    7[COMMON] unsigned char 
  4506 ;;  datoR           1    8[COMMON] unsigned char 
  4507 ;; Return value:  Size  Location     Type
  4508 ;;                  1    wreg      unsigned char 
  4509 ;; Registers used:
  4510 ;;		wreg, status,2, status,0, pclath, cstack
  4511 ;; Tracked objects:
  4512 ;;		On entry : 0/0
  4513 ;;		On exit  : 0/0
  4514 ;;		Unchanged: 0/0
  4515 ;; Data sizes:     COMMON   BANK0   BANK1   BANK2   BANK3   BANK4   BANK5   BANK6
  4516 ;;      Params:         0       0       0       0       0       0       0       0
  4517 ;;      Locals:         2       0       0       0       0       0       0       0
  4518 ;;      Temps:          3       0       0       0       0       0       0       0
  4519 ;;      Totals:         5       0       0       0       0       0       0       0
  4520 ;;Total ram usage:        5 bytes
  4521 ;; Hardware stack levels used:    1
  4522 ;; Hardware stack levels required when called:    1
  4523 ;; This function calls:
  4524 ;;		___bmul
  4525 ;; This function is called by:
  4526 ;;		_main
  4527 ;; This function uses a non-reentrant model
  4528 ;;
  4529                           
  4530                           
  4531                           ;psect for function _convertirDato
  4532  031B                     _convertirDato:	
  4533                           
  4534                           ;incstack = 0
  4535                           ; Regs used in _convertirDato: [wreg+status,2+status,0+pclath+cstack]
  4536                           ;convertirDato@dato stored from wreg
  4537  031B  00F7               	movwf	convertirDato@dato
  4538                           
  4539                           ;main.c: 59: unsigned char datoR = 0;
  4540  031C  01F8               	clrf	convertirDato@datoR
  4541                           
  4542                           ;main.c: 60: datoR = (dato & 0xF0) >> 4;
  4543  031D  0877               	movf	convertirDato@dato,w
  4544  031E  00F4               	movwf	??_convertirDato
  4545  031F  3004               	movlw	4
  4546  0320                     u1205:	
  4547  0320  36F4               	lsrf	??_convertirDato,f
  4548  0321  0B89               	decfsz	9,f
  4549  0322  2B20               	goto	u1205
  4550  0323  0874               	movf	??_convertirDato,w
  4551  0324  390F               	andlw	15
  4552  0325  00F5               	movwf	??_convertirDato+1
  4553  0326  0875               	movf	??_convertirDato+1,w
  4554  0327  00F8               	movwf	convertirDato@datoR
  4555                           
  4556                           ;main.c: 61: datoR = (datoR * 10) + (dato & 0x0F);
  4557  0328  300F               	movlw	15
  4558  0329  0577               	andwf	convertirDato@dato,w
  4559  032A  00F4               	movwf	??_convertirDato
  4560  032B  300A               	movlw	10
  4561  032C  00F5               	movwf	??_convertirDato+1
  4562  032D  0875               	movf	??_convertirDato+1,w
  4563  032E  00F0               	movwf	___bmul@multiplicand
  4564  032F  0878               	movf	convertirDato@datoR,w
  4565  0330  3182  22C8         	fcall	___bmul
  4566  0332  0774               	addwf	??_convertirDato,w
  4567  0333  00F6               	movwf	??_convertirDato+2
  4568  0334  0876               	movf	??_convertirDato+2,w
  4569  0335  00F8               	movwf	convertirDato@datoR
  4570                           
  4571                           ;main.c: 62: return datoR;
  4572  0336  0878               	movf	convertirDato@datoR,w
  4573  0337  0008               	return
  4574  0338                     __end_of_convertirDato:	
  4575                           
  4576                           	psect	text20
  4577  02C8                     __ptext20:	
  4578 ;; *************** function ___bmul *****************
  4579 ;; Defined at:
  4580 ;;		line 4 in file "/Applications/microchip/xc8/v1.38/sources/common/Umul8.c"
  4581 ;; Parameters:    Size  Location     Type
  4582 ;;  multiplier      1    wreg     unsigned char 
  4583 ;;  multiplicand    1    0[COMMON] unsigned char 
  4584 ;; Auto vars:     Size  Location     Type
  4585 ;;  multiplier      1    3[COMMON] unsigned char 
  4586 ;;  product         1    2[COMMON] unsigned char 
  4587 ;; Return value:  Size  Location     Type
  4588 ;;                  1    wreg      unsigned char 
  4589 ;; Registers used:
  4590 ;;		wreg, status,2, status,0
  4591 ;; Tracked objects:
  4592 ;;		On entry : 0/0
  4593 ;;		On exit  : 0/0
  4594 ;;		Unchanged: 0/0
  4595 ;; Data sizes:     COMMON   BANK0   BANK1   BANK2   BANK3   BANK4   BANK5   BANK6
  4596 ;;      Params:         1       0       0       0       0       0       0       0
  4597 ;;      Locals:         2       0       0       0       0       0       0       0
  4598 ;;      Temps:          1       0       0       0       0       0       0       0
  4599 ;;      Totals:         4       0       0       0       0       0       0       0
  4600 ;;Total ram usage:        4 bytes
  4601 ;; Hardware stack levels used:    1
  4602 ;; This function calls:
  4603 ;;		Nothing
  4604 ;; This function is called by:
  4605 ;;		_convertirDato
  4606 ;; This function uses a non-reentrant model
  4607 ;;
  4608                           
  4609                           
  4610                           ;psect for function ___bmul
  4611  02C8                     ___bmul:	
  4612                           
  4613                           ;incstack = 0
  4614                           ; Regs used in ___bmul: [wreg+status,2+status,0]
  4615                           ;___bmul@multiplier stored from wreg
  4616  02C8  00F3               	movwf	___bmul@multiplier
  4617  02C9  01F2               	clrf	___bmul@product
  4618  02CA                     l1503:	
  4619  02CA  1C73               	btfss	___bmul@multiplier,0
  4620  02CB  2AD0               	goto	l1507
  4621  02CC  0870               	movf	___bmul@multiplicand,w
  4622  02CD  00F1               	movwf	??___bmul
  4623  02CE  0871               	movf	??___bmul,w
  4624  02CF  07F2               	addwf	___bmul@product,f
  4625  02D0                     l1507:	
  4626  02D0  1003               	clrc
  4627  02D1  0DF0               	rlf	___bmul@multiplicand,f
  4628  02D2  1003               	clrc
  4629  02D3  0CF3               	rrf	___bmul@multiplier,f
  4630  02D4  0873               	movf	___bmul@multiplier,w
  4631  02D5  1D03               	btfss	3,2
  4632  02D6  2ACA               	goto	l1503
  4633  02D7  0872               	movf	___bmul@product,w
  4634  02D8  0008               	return
  4635  02D9                     __end_of___bmul:	
  4636                           
  4637                           	psect	text21
  4638  028E                     __ptext21:	
  4639 ;; *************** function _SYSTEM_Initialize *****************
  4640 ;; Defined at:
  4641 ;;		line 70 in file "mcc_generated_files/mcc.c"
  4642 ;; Parameters:    Size  Location     Type
  4643 ;;		None
  4644 ;; Auto vars:     Size  Location     Type
  4645 ;;		None
  4646 ;; Return value:  Size  Location     Type
  4647 ;;                  1    wreg      void 
  4648 ;; Registers used:
  4649 ;;		wreg, status,2, status,0, pclath, cstack
  4650 ;; Tracked objects:
  4651 ;;		On entry : 0/0
  4652 ;;		On exit  : 0/0
  4653 ;;		Unchanged: 0/0
  4654 ;; Data sizes:     COMMON   BANK0   BANK1   BANK2   BANK3   BANK4   BANK5   BANK6
  4655 ;;      Params:         0       0       0       0       0       0       0       0
  4656 ;;      Locals:         0       0       0       0       0       0       0       0
  4657 ;;      Temps:          0       0       0       0       0       0       0       0
  4658 ;;      Totals:         0       0       0       0       0       0       0       0
  4659 ;;Total ram usage:        0 bytes
  4660 ;; Hardware stack levels used:    1
  4661 ;; Hardware stack levels required when called:    1
  4662 ;; This function calls:
  4663 ;;		_EUSART_Initialize
  4664 ;;		_OSCILLATOR_Initialize
  4665 ;;		_PIN_MANAGER_Initialize
  4666 ;; This function is called by:
  4667 ;;		_main
  4668 ;; This function uses a non-reentrant model
  4669 ;;
  4670                           
  4671                           
  4672                           ;psect for function _SYSTEM_Initialize
  4673  028E                     _SYSTEM_Initialize:	
  4674                           
  4675                           ;mcc.c: 73: PIN_MANAGER_Initialize();
  4676                           
  4677                           ;incstack = 0
  4678                           ; Regs used in _SYSTEM_Initialize: [wreg+status,2+status,0+pclath+cstack]
  4679  028E  3183  2355  3182   	fcall	_PIN_MANAGER_Initialize
  4680                           
  4681                           ;mcc.c: 74: OSCILLATOR_Initialize();
  4682  0291  3182  2271  3182   	fcall	_OSCILLATOR_Initialize
  4683                           
  4684                           ;mcc.c: 75: EUSART_Initialize();
  4685  0294  3182  2297         	fcall	_EUSART_Initialize
  4686  0296  0008               	return
  4687  0297                     __end_of_SYSTEM_Initialize:	
  4688                           
  4689                           	psect	text22
  4690  0355                     __ptext22:	
  4691 ;; *************** function _PIN_MANAGER_Initialize *****************
  4692 ;; Defined at:
  4693 ;;		line 49 in file "mcc_generated_files/pin_manager.c"
  4694 ;; Parameters:    Size  Location     Type
  4695 ;;		None
  4696 ;; Auto vars:     Size  Location     Type
  4697 ;;		None
  4698 ;; Return value:  Size  Location     Type
  4699 ;;                  1    wreg      void 
  4700 ;; Registers used:
  4701 ;;		wreg, status,2
  4702 ;; Tracked objects:
  4703 ;;		On entry : 0/0
  4704 ;;		On exit  : 0/0
  4705 ;;		Unchanged: 0/0
  4706 ;; Data sizes:     COMMON   BANK0   BANK1   BANK2   BANK3   BANK4   BANK5   BANK6
  4707 ;;      Params:         0       0       0       0       0       0       0       0
  4708 ;;      Locals:         0       0       0       0       0       0       0       0
  4709 ;;      Temps:          0       0       0       0       0       0       0       0
  4710 ;;      Totals:         0       0       0       0       0       0       0       0
  4711 ;;Total ram usage:        0 bytes
  4712 ;; Hardware stack levels used:    1
  4713 ;; This function calls:
  4714 ;;		Nothing
  4715 ;; This function is called by:
  4716 ;;		_SYSTEM_Initialize
  4717 ;; This function uses a non-reentrant model
  4718 ;;
  4719                           
  4720                           
  4721                           ;psect for function _PIN_MANAGER_Initialize
  4722  0355                     _PIN_MANAGER_Initialize:	
  4723                           
  4724                           ;pin_manager.c: 51: LATB = 0x0;
  4725                           
  4726                           ;incstack = 0
  4727                           ; Regs used in _PIN_MANAGER_Initialize: [wreg+status,2]
  4728  0355  0022               	movlb	2	; select bank2
  4729  0356  018D               	clrf	13	;volatile
  4730                           
  4731                           ;pin_manager.c: 52: WPUE = 0x8;
  4732  0357  3008               	movlw	8
  4733  0358  0024               	movlb	4	; select bank4
  4734  0359  0090               	movwf	16	;volatile
  4735                           
  4736                           ;pin_manager.c: 53: LATA = 0x0;
  4737  035A  0022               	movlb	2	; select bank2
  4738  035B  018C               	clrf	12	;volatile
  4739                           
  4740                           ;pin_manager.c: 54: ANSELE = 0x7;
  4741  035C  3007               	movlw	7
  4742  035D  0023               	movlb	3	; select bank3
  4743  035E  0090               	movwf	16	;volatile
  4744                           
  4745                           ;pin_manager.c: 55: LATE = 0x0;
  4746  035F  0022               	movlb	2	; select bank2
  4747  0360  0190               	clrf	16	;volatile
  4748                           
  4749                           ;pin_manager.c: 56: LATD = 0x0;
  4750  0361  018F               	clrf	15	;volatile
  4751                           
  4752                           ;pin_manager.c: 57: LATC = 0x0;
  4753  0362  018E               	clrf	14	;volatile
  4754                           
  4755                           ;pin_manager.c: 58: ANSELA = 0x3F;
  4756  0363  303F               	movlw	63
  4757  0364  0023               	movlb	3	; select bank3
  4758  0365  008C               	movwf	12	;volatile
  4759                           
  4760                           ;pin_manager.c: 59: ANSELB = 0x30;
  4761  0366  3030               	movlw	48
  4762  0367  008D               	movwf	13	;volatile
  4763                           
  4764                           ;pin_manager.c: 60: ANSELD = 0xEF;
  4765  0368  30EF               	movlw	239
  4766  0369  008F               	movwf	15	;volatile
  4767                           
  4768                           ;pin_manager.c: 61: WPUB = 0xF0;
  4769  036A  30F0               	movlw	240
  4770  036B  0024               	movlb	4	; select bank4
  4771  036C  008D               	movwf	13	;volatile
  4772                           
  4773                           ;pin_manager.c: 62: TRISD = 0xEF;
  4774  036D  30EF               	movlw	239
  4775  036E  0021               	movlb	1	; select bank1
  4776  036F  008F               	movwf	15	;volatile
  4777                           
  4778                           ;pin_manager.c: 63: TRISE = 0xF;
  4779  0370  300F               	movlw	15
  4780  0371  0090               	movwf	16	;volatile
  4781                           
  4782                           ;pin_manager.c: 64: TRISB = 0xFF;
  4783  0372  30FF               	movlw	255
  4784  0373  008D               	movwf	13	;volatile
  4785                           
  4786                           ;pin_manager.c: 65: TRISC = 0xBF;
  4787  0374  30BF               	movlw	191
  4788  0375  008E               	movwf	14	;volatile
  4789                           
  4790                           ;pin_manager.c: 66: TRISA = 0xFF;
  4791  0376  30FF               	movlw	255
  4792  0377  008C               	movwf	12	;volatile
  4793                           
  4794                           ;pin_manager.c: 68: OPTION_REGbits.nWPUEN = 0x1;
  4795  0378  1795               	bsf	21,7	;volatile
  4796                           
  4797                           ;pin_manager.c: 69: APFCON = 0x00;
  4798  0379  0022               	movlb	2	; select bank2
  4799  037A  019D               	clrf	29	;volatile
  4800  037B  0008               	return
  4801  037C                     __end_of_PIN_MANAGER_Initialize:	
  4802                           
  4803                           	psect	text23
  4804  0271                     __ptext23:	
  4805 ;; *************** function _OSCILLATOR_Initialize *****************
  4806 ;; Defined at:
  4807 ;;		line 78 in file "mcc_generated_files/mcc.c"
  4808 ;; Parameters:    Size  Location     Type
  4809 ;;		None
  4810 ;; Auto vars:     Size  Location     Type
  4811 ;;		None
  4812 ;; Return value:  Size  Location     Type
  4813 ;;                  1    wreg      void 
  4814 ;; Registers used:
  4815 ;;		wreg, status,2
  4816 ;; Tracked objects:
  4817 ;;		On entry : 0/0
  4818 ;;		On exit  : 0/0
  4819 ;;		Unchanged: 0/0
  4820 ;; Data sizes:     COMMON   BANK0   BANK1   BANK2   BANK3   BANK4   BANK5   BANK6
  4821 ;;      Params:         0       0       0       0       0       0       0       0
  4822 ;;      Locals:         0       0       0       0       0       0       0       0
  4823 ;;      Temps:          0       0       0       0       0       0       0       0
  4824 ;;      Totals:         0       0       0       0       0       0       0       0
  4825 ;;Total ram usage:        0 bytes
  4826 ;; Hardware stack levels used:    1
  4827 ;; This function calls:
  4828 ;;		Nothing
  4829 ;; This function is called by:
  4830 ;;		_SYSTEM_Initialize
  4831 ;; This function uses a non-reentrant model
  4832 ;;
  4833                           
  4834                           
  4835                           ;psect for function _OSCILLATOR_Initialize
  4836  0271                     _OSCILLATOR_Initialize:	
  4837                           
  4838                           ;mcc.c: 81: OSCCON = 0x38;
  4839                           
  4840                           ;incstack = 0
  4841                           ; Regs used in _OSCILLATOR_Initialize: [wreg+status,2]
  4842  0271  3038               	movlw	56
  4843  0272  0021               	movlb	1	; select bank1
  4844  0273  0099               	movwf	25	;volatile
  4845                           
  4846                           ;mcc.c: 83: OSCSTAT = 0x00;
  4847  0274  019A               	clrf	26	;volatile
  4848                           
  4849                           ;mcc.c: 85: OSCTUNE = 0x00;
  4850  0275  0198               	clrf	24	;volatile
  4851  0276  0008               	return
  4852  0277                     __end_of_OSCILLATOR_Initialize:	
  4853                           
  4854                           	psect	text24
  4855  0297                     __ptext24:	
  4856 ;; *************** function _EUSART_Initialize *****************
  4857 ;; Defined at:
  4858 ;;		line 55 in file "mcc_generated_files/eusart.c"
  4859 ;; Parameters:    Size  Location     Type
  4860 ;;		None
  4861 ;; Auto vars:     Size  Location     Type
  4862 ;;		None
  4863 ;; Return value:  Size  Location     Type
  4864 ;;                  1    wreg      void 
  4865 ;; Registers used:
  4866 ;;		wreg, status,2
  4867 ;; Tracked objects:
  4868 ;;		On entry : 0/0
  4869 ;;		On exit  : 0/0
  4870 ;;		Unchanged: 0/0
  4871 ;; Data sizes:     COMMON   BANK0   BANK1   BANK2   BANK3   BANK4   BANK5   BANK6
  4872 ;;      Params:         0       0       0       0       0       0       0       0
  4873 ;;      Locals:         0       0       0       0       0       0       0       0
  4874 ;;      Temps:          0       0       0       0       0       0       0       0
  4875 ;;      Totals:         0       0       0       0       0       0       0       0
  4876 ;;Total ram usage:        0 bytes
  4877 ;; Hardware stack levels used:    1
  4878 ;; This function calls:
  4879 ;;		Nothing
  4880 ;; This function is called by:
  4881 ;;		_SYSTEM_Initialize
  4882 ;; This function uses a non-reentrant model
  4883 ;;
  4884                           
  4885                           
  4886                           ;psect for function _EUSART_Initialize
  4887  0297                     _EUSART_Initialize:	
  4888                           
  4889                           ;eusart.c: 60: BAUDCON = 0x08;
  4890                           
  4891                           ;incstack = 0
  4892                           ; Regs used in _EUSART_Initialize: [wreg+status,2]
  4893  0297  3008               	movlw	8
  4894  0298  0023               	movlb	3	; select bank3
  4895  0299  009F               	movwf	31	;volatile
  4896                           
  4897                           ;eusart.c: 63: RCSTA = 0x90;
  4898  029A  3090               	movlw	144
  4899  029B  009D               	movwf	29	;volatile
  4900                           
  4901                           ;eusart.c: 66: TXSTA = 0x24;
  4902  029C  3024               	movlw	36
  4903  029D  009E               	movwf	30	;volatile
  4904                           
  4905                           ;eusart.c: 69: SPBRGL = 0x56;
  4906  029E  3056               	movlw	86
  4907  029F  009B               	movwf	27	;volatile
  4908                           
  4909                           ;eusart.c: 72: SPBRGH = 0x00;
  4910  02A0  019C               	clrf	28	;volatile
  4911  02A1  0008               	return
  4912  02A2                     __end_of_EUSART_Initialize:	
  4913  007E                     btemp	set	126	;btemp
  4914  007E                     wtemp	set	126
  4915  007E                     wtemp0	set	126
  4916  0080                     wtemp1	set	128
  4917  0082                     wtemp2	set	130
  4918  0084                     wtemp3	set	132
  4919  0086                     wtemp4	set	134
  4920  0088                     wtemp5	set	136
  4921  007F                     wtemp6	set	127
  4922  007E                     ttemp	set	126
  4923  007E                     ttemp0	set	126
  4924  0081                     ttemp1	set	129
  4925  0084                     ttemp2	set	132
  4926  0087                     ttemp3	set	135
  4927  007F                     ttemp4	set	127
  4928  007E                     ltemp	set	126
  4929  007E                     ltemp0	set	126
  4930  0082                     ltemp1	set	130
  4931  0086                     ltemp2	set	134
  4932  0080                     ltemp3	set	128


Data Sizes:
    Strings     758
    Constant    18
    Data        0
    BSS         0
    Persistent  0
    Stack       0

Auto Spaces:
    Space          Size  Autos    Used
    COMMON           14     14      14
    BANK0            80     45      45
    BANK1            80      0       0
    BANK2            80      0       0
    BANK3            80      0       0
    BANK4            80      0       0
    BANK5            80      0       0
    BANK6            16      0       0

Pointer List with Targets:

    printf@cp	PTR const unsigned char  size(1) Largest target is 1
		 -> printf@c(BANK0[1]), 

    printf@f	PTR const unsigned char  size(2) Largest target is 77
		 -> STR_21(CODE[37]), STR_20(CODE[31]), STR_19(CODE[3]), STR_18(CODE[28]), 
		 -> STR_17(CODE[26]), STR_16(CODE[47]), STR_15(CODE[37]), STR_14(CODE[47]), 
		 -> STR_13(CODE[34]), STR_12(CODE[34]), STR_11(CODE[39]), STR_10(CODE[77]), 
		 -> STR_9(CODE[33]), STR_8(CODE[43]), STR_7(CODE[35]), STR_6(CODE[31]), 
		 -> STR_5(CODE[36]), STR_4(CODE[32]), STR_3(CODE[28]), STR_2(CODE[32]), 
		 -> STR_1(CODE[31]), 

    printf@ap	PTR void [1] size(1) Largest target is 2
		 -> ?_printf(BANK0[2]), 


Critical Paths under _main in COMMON

    _printf->___lwmod
    _putch->_EUSART_Write
    ___lwmod->___lwdiv
    _escribe_rtc->_i2c_envia_dato
    _leer_rtc->_i2c_recibe_dato
    _convertirDato->___bmul

Critical Paths under _main in BANK0

    _main->_setReloj
    _setReloj->_printf

Critical Paths under _main in BANK1

    None.

Critical Paths under _main in BANK2

    None.

Critical Paths under _main in BANK3

    None.

Critical Paths under _main in BANK4

    None.

Critical Paths under _main in BANK5

    None.

Critical Paths under _main in BANK6

    None.

Call Graph Tables:

 ---------------------------------------------------------------------------------
 (Depth) Function   	        Calls       Base Space   Used Autos Params    Refs
 ---------------------------------------------------------------------------------
 (0) _main                                                14    14      0    7480
                                             31 BANK0     14    14      0
                  _SYSTEM_Initialize
                      _convertirDato
                        _i2c_iniciar
                           _leer_rtc
                             _printf
                           _setReloj
 ---------------------------------------------------------------------------------
 (1) _setReloj                                             7     7      0    3588
                                             24 BANK0      7     7      0
                        _EUSART_Read
                        _escribe_rtc
                             _printf
 ---------------------------------------------------------------------------------
 (2) _printf                                              28    20      8    3243
                                              0 BANK0     24    16      8
                            ___lwdiv
                            ___lwmod
                             ___wmul
                            _isdigit
                              _putch
 ---------------------------------------------------------------------------------
 (3) _putch                                                1     1      0      44
                                              1 COMMON     1     1      0
                       _EUSART_Write
 ---------------------------------------------------------------------------------
 (4) _EUSART_Write                                         1     1      0      22
                                              0 COMMON     1     1      0
 ---------------------------------------------------------------------------------
 (3) _isdigit                                              2     2      0      68
                                              0 COMMON     2     2      0
 ---------------------------------------------------------------------------------
 (3) ___wmul                                               6     2      4     198
                                              0 COMMON     6     2      4
 ---------------------------------------------------------------------------------
 (3) ___lwmod                                              6     2      4     265
                                              8 COMMON     6     2      4
                            ___lwdiv (ARG)
 ---------------------------------------------------------------------------------
 (3) ___lwdiv                                              8     4      4     374
                                              0 COMMON     8     4      4
 ---------------------------------------------------------------------------------
 (2) _escribe_rtc                                          2     1      1     119
                                              1 COMMON     2     1      1
                        _i2c_detener
                     _i2c_envia_dato
                     _i2c_inicia_com
 ---------------------------------------------------------------------------------
 (2) _EUSART_Read                                          0     0      0       0
 ---------------------------------------------------------------------------------
 (1) _leer_rtc                                             3     3      0      90
                                              2 COMMON     3     3      0
                        _i2c_detener
                     _i2c_envia_dato
                     _i2c_inicia_com
                    _i2c_recibe_dato
                   _i2c_reinicia_com
 ---------------------------------------------------------------------------------
 (2) _i2c_reinicia_com                                     0     0      0       0
                         _i2c_espera
 ---------------------------------------------------------------------------------
 (2) _i2c_recibe_dato                                      2     2      0      23
                                              0 COMMON     2     2      0
                         _i2c_espera
 ---------------------------------------------------------------------------------
 (3) _i2c_inicia_com                                       0     0      0       0
                         _i2c_espera
 ---------------------------------------------------------------------------------
 (3) _i2c_envia_dato                                       1     1      0      22
                                              0 COMMON     1     1      0
                         _i2c_espera
 ---------------------------------------------------------------------------------
 (3) _i2c_detener                                          0     0      0       0
                         _i2c_espera
 ---------------------------------------------------------------------------------
 (4) _i2c_espera                                           0     0      0       0
 ---------------------------------------------------------------------------------
 (1) _i2c_iniciar                                          0     0      0       0
 ---------------------------------------------------------------------------------
 (1) _convertirDato                                        5     5      0     236
                                              4 COMMON     5     5      0
                             ___bmul
 ---------------------------------------------------------------------------------
 (2) ___bmul                                               4     3      1     145
                                              0 COMMON     4     3      1
 ---------------------------------------------------------------------------------
 (1) _SYSTEM_Initialize                                    0     0      0       0
                  _EUSART_Initialize
              _OSCILLATOR_Initialize
             _PIN_MANAGER_Initialize
 ---------------------------------------------------------------------------------
 (2) _PIN_MANAGER_Initialize                               0     0      0       0
 ---------------------------------------------------------------------------------
 (2) _OSCILLATOR_Initialize                                0     0      0       0
 ---------------------------------------------------------------------------------
 (2) _EUSART_Initialize                                    0     0      0       0
 ---------------------------------------------------------------------------------
 Estimated maximum stack depth 4
 ---------------------------------------------------------------------------------

 Call Graph Graphs:

 _main (ROOT)
   _SYSTEM_Initialize
     _EUSART_Initialize
     _OSCILLATOR_Initialize
     _PIN_MANAGER_Initialize
   _convertirDato
     ___bmul
   _i2c_iniciar
   _leer_rtc
     _i2c_detener
       _i2c_espera
     _i2c_envia_dato
       _i2c_espera
     _i2c_inicia_com
       _i2c_espera
     _i2c_recibe_dato
       _i2c_espera
     _i2c_reinicia_com
       _i2c_espera
   _printf
     ___lwdiv
     ___lwmod
       ___lwdiv (ARG)
     ___wmul
     _isdigit
     _putch
       _EUSART_Write
   _setReloj
     _EUSART_Read
     _escribe_rtc
       _i2c_detener
         _i2c_espera
       _i2c_envia_dato
         _i2c_espera
       _i2c_inicia_com
         _i2c_espera
     _printf
       ___lwdiv
       ___lwmod
         ___lwdiv (ARG)
       ___wmul
       _isdigit
       _putch
         _EUSART_Write

 Address spaces:
Name               Size   Autos  Total    Cost      Usage
BIGRAM             1F0      0       0       0        0.0%
EEDATA             100      0       0       0        0.0%
NULL                 0      0       0       0        0.0%
CODE                 0      0       0       0        0.0%
BITCOMMON            E      0       0       1        0.0%
BITSFR0              0      0       0       1        0.0%
SFR0                 0      0       0       1        0.0%
COMMON               E      E       E       2      100.0%
BITSFR1              0      0       0       2        0.0%
SFR1                 0      0       0       2        0.0%
BITSFR2              0      0       0       3        0.0%
SFR2                 0      0       0       3        0.0%
STACK                0      0       0       3        0.0%
BITSFR3              0      0       0       4        0.0%
SFR3                 0      0       0       4        0.0%
ABS                  0      0       0       4        0.0%
BITBANK0            50      0       0       5        0.0%
BITSFR4              0      0       0       5        0.0%
SFR4                 0      0       0       5        0.0%
BANK0               50     2D      2D       6       56.2%
BITSFR5              0      0       0       6        0.0%
SFR5                 0      0       0       6        0.0%
BITBANK1            50      0       0       7        0.0%
BITSFR6              0      0       0       7        0.0%
SFR6                 0      0       0       7        0.0%
BANK1               50      0       0       8        0.0%
BITSFR7              0      0       0       8        0.0%
SFR7                 0      0       0       8        0.0%
BITBANK2            50      0       0       9        0.0%
BITSFR8              0      0       0       9        0.0%
SFR8                 0      0       0       9        0.0%
BANK2               50      0       0      10        0.0%
BITSFR9              0      0       0      10        0.0%
SFR9                 0      0       0      10        0.0%
BITBANK3            50      0       0      11        0.0%
BITSFR10             0      0       0      11        0.0%
SFR10                0      0       0      11        0.0%
BANK3               50      0       0      12        0.0%
BITSFR11             0      0       0      12        0.0%
SFR11                0      0       0      12        0.0%
BITBANK4            50      0       0      13        0.0%
BITSFR12             0      0       0      13        0.0%
SFR12                0      0       0      13        0.0%
BANK4               50      0       0      14        0.0%
BITSFR13             0      0       0      14        0.0%
SFR13                0      0       0      14        0.0%
BITBANK5            50      0       0      15        0.0%
BITSFR14             0      0       0      15        0.0%
SFR14                0      0       0      15        0.0%
BANK5               50      0       0      16        0.0%
BITSFR15             0      0       0      16        0.0%
SFR15                0      0       0      16        0.0%
BITBANK6            10      0       0      17        0.0%
BITSFR16             0      0       0      17        0.0%
SFR16                0      0       0      17        0.0%
BANK6               10      0       0      18        0.0%
BITSFR17             0      0       0      18        0.0%
SFR17                0      0       0      18        0.0%
BITSFR18             0      0       0      19        0.0%
SFR18                0      0       0      19        0.0%
DATA                 0      0       0      19        0.0%
BITSFR19             0      0       0      20        0.0%
SFR19                0      0       0      20        0.0%
BITSFR20             0      0       0      21        0.0%
SFR20                0      0       0      21        0.0%
BITSFR21             0      0       0      22        0.0%
SFR21                0      0       0      22        0.0%
BITSFR22             0      0       0      23        0.0%
SFR22                0      0       0      23        0.0%
BITSFR23             0      0       0      24        0.0%
SFR23                0      0       0      24        0.0%
BITSFR24             0      0       0      25        0.0%
SFR24                0      0       0      25        0.0%
BITSFR25             0      0       0      26        0.0%
SFR25                0      0       0      26        0.0%
BITSFR26             0      0       0      27        0.0%
SFR26                0      0       0      27        0.0%
BITSFR27             0      0       0      28        0.0%
SFR27                0      0       0      28        0.0%
BITSFR28             0      0       0      29        0.0%
SFR28                0      0       0      29        0.0%
BITSFR29             0      0       0      30        0.0%
SFR29                0      0       0      30        0.0%
BITSFR30             0      0       0      31        0.0%
SFR30                0      0       0      31        0.0%
BITSFR31             0      0       0      32        0.0%
SFR31                0      0       0      32        0.0%


Microchip Technology PIC Macro Assembler V1.38 build -256452561 
Symbol Table                                                                                   Fri Sep  2 01:25:32 2016

                 ___bmul@product 0072                      __CFG_CP$OFF 0000                               l66 0426  
                             l75 0453              ___wmul@multiplicand 0072                              l111 0287  
                            l104 02B0                              l210 0659                              l231 070A  
                            l209 06C2                              l226 06E8                              l235 0741  
                            l340 0308                              l256 07FC                              l197 060F  
                   __CFG_CPD$OFF 0000                              u725 03B3                              u815 0394  
                            u745 03BD                              u825 039B                              u755 03C7  
                            u765 03CF                              u685 0309                              u695 030E  
                            u795 0385                              u955 0703                              u895 0661  
                            u985 0725                     __CFG_BORV$LO 0000                              wreg 0009  
                   __CFG_IESO$ON 0000                     __CFG_FOSC$HS 0000                     ?_EUSART_Read 0070  
                   __CFG_LVP$OFF 0000                ?_i2c_reinicia_com 0070                     ?_escribe_rtc 0071  
                           l1223 02C6                             l1313 02B8                             l1251 03B0  
                           l1331 061D                             l1323 060A                             l1253 03BC  
                           l1229 0302                             l1503 02CA                             l1263 03D7  
                           l1431 0779                             l1407 072C                             l1351 066A  
                           l1343 065B                             l1335 062A                             l1281 039A  
                           l1433 077D                             l1441 0792                             l1425 076A  
                           l1417 075D                             l1409 0735                             l1353 0679  
                           l1329 0614                             l1507 02D0                             l1259 03CE  
                           l1275 0382                             l1443 0798                             l1419 0760  
                           l1363 069B                             l1347 0668                             l1189 027E  
                           l1277 038E                             l1285 03A3                             l1445 07BF  
                           l1453 07E6                             l1437 078A                             l1381 06DC  
                           l1357 0685                             l1455 07EA                             l1359 0690  
                           l1535 03EB                             l1369 06A4                             l1457 05EE  
                           l1545 040C                             l1553 0436                             l1625 053E  
                           l1547 0413                             l1573 0447                             STR_1 0A64  
                           STR_2 0A25                             STR_3 0AA2                             STR_4 0A05  
                           STR_5 0959                             STR_6 0A45                             STR_7 097D  
                           STR_8 08BD                             STR_9 09E4                             u1025 0750  
                           u1205 0320                             u1145 03E9                             u1237 044E  
                           _LATA 010C                             _LATB 010D                             u1247 059A  
                           _LATC 010E                             _LATD 010F                             u1185 0403  
                           u1257 05E1                             _LATE 0110                             u1195 0434  
             ??_i2c_reinicia_com 0070                             _WPUB 020D                             _WPUE 0210  
                   __CFG_WRT$OFF 0000                    __CFG_FCMEN$ON 0000                    ??_i2c_detener 0070  
                    main@minutos 0046                             _main 0441                             fsr0h 0005  
                           fsr1h 0007                             fsr0l 0004                             indf0 0000  
                           indf1 0001                             fsr1l 0006                             btemp 007E  
                  __CFG_BOREN$ON 0000                             ltemp 007E                    ??_i2c_iniciar 0070  
                           start 0002                             ttemp 007E                             wtemp 007E  
              ___bmul@multiplier 0073                    __CFG_MCLRE$ON 0000                   _i2c_envia_dato 0277  
                  ?_EUSART_Write 0070   __size_of_OSCILLATOR_Initialize 0006                   _i2c_inicia_com 0262  
  __end_of_OSCILLATOR_Initialize 0277                            ?_main 0070                    _convertirDato 031B  
                          STR_10 0812                            STR_11 08E8                            STR_20 0A83  
                          STR_12 09A0                            STR_13 09C2                            STR_21 090F  
                          STR_22 0AF4                            STR_14 088E                            STR_15 0934  
                          STR_16 085F                            STR_17 0ADA                    __CFG_WDTE$OFF 0000  
                          STR_18 0ABE                            STR_19 0B05                convertirDato@dato 0077  
                __end_of___lwdiv 03DC                  __end_of___lwmod 03A8                            _RCREG 0199  
                          _RCSTA 019D                            _TRISA 008C                            _TRISB 008D  
                          _TRISC 008E                            _TRISD 008F                            _TRISE 0090  
                          _TXREG 019A                            _TXSTA 019E                  __end_of_dpowers 080A  
                __end_of_isdigit 02C8                     main@segundos 0045                            _putch 026C  
                          ltemp0 007E                            ltemp1 0082                            ltemp2 0086  
                          ltemp3 0080                            ttemp0 007E                            ttemp1 0081  
                          ttemp2 0084                            ttemp3 0087                            ttemp4 007F  
                          status 0003                            wtemp0 007E                            wtemp1 0080  
                          wtemp2 0082                            wtemp3 0084                            wtemp4 0086  
                          wtemp5 0088                            wtemp6 007F                       _i2c_espera 027E  
                __initialization 07FD              __end_of_i2c_detener 0262           __end_of_i2c_envia_dato 027E  
                   __end_of_main 05E9           __end_of_i2c_inicia_com 0267              __end_of_i2c_iniciar 02AE  
                 ??_EUSART_Write 0070                   ?_convertirDato 0070                           ??_main 003F  
             i2c_envia_dato@dato 0070                   __CFG_PLLEN$OFF 0000                           _APFCON 011D  
                         _ANSELA 018C                           ?_putch 0070                           _ANSELB 018D  
                         _ANSELD 018F                           _ANSELE 0190               convertirDato@datoR 0078  
                         _OSCCON 0099                           _SPBRGH 019C                           _SPBRGL 019B  
                         _SSPADD 0212                           _SSPCON 0215                           _SSPBUF 0211  
                 __CFG_PWRTE$OFF 0000                           ___bmul 02C8                  ?_i2c_envia_dato 0070  
                         ___wmul 0300                   __CFG_STVREN$ON 0000                 __end_of_leer_rtc 0355  
                ?_i2c_inicia_com 0070                        ??___lwdiv 0074                        ??___lwmod 007C  
                         _printf 05E9                 __end_of_setReloj 0441                  _i2c_recibe_dato 02EC  
                      ??_isdigit 0070             escribe_rtc@direccion 0072             __size_of_EUSART_Read 000C  
              _SYSTEM_Initialize 028E          __end_of__initialization 07FD             __size_of_escribe_rtc 0013  
                    _i2c_detener 025D               ?_SYSTEM_Initialize 0070                      _i2c_iniciar 02A2  
                    ?_i2c_espera 0070              ___bmul@multiplicand 0070                     leer_rtc@dato 0074  
                 __pcstackCOMMON 0070              ??_SYSTEM_Initialize 0070                  ??_convertirDato 0074  
                  __end_of_putch 0271                   _OPTION_REGbits 0095        __end_of_SYSTEM_Initialize 0297  
                        ??_putch 0071             __end_of_EUSART_Write 028E                  __CFG_VCAPEN$OFF 0000  
                     __pmaintext 0441        __size_of_i2c_reinicia_com 0005                          ?___bmul 0070  
                        ?___wmul 0070          __end_of_i2c_recibe_dato 0300                          _BAUDCON 019F  
                        _ACKSTAT 10B6                          ?_printf 0020                          _OSCSTAT 009A  
                        _OSCTUNE 0098              __size_of_i2c_espera 0008                          _SSPCON2 0216  
                        _SSPSTAT 0214                        ?_leer_rtc 0070                        ?_setReloj 0070  
                __size_of___bmul 0011                  __size_of___wmul 001B                          ___lwdiv 03A8  
                        ___lwmod 037C                          __ptext1 03DC                          __ptext2 05E9  
                        __ptext3 026C                          __ptext4 0286                          __ptext5 02BA  
                        __ptext6 0300                          __ptext7 037C                          __ptext8 03A8  
                        __ptext9 02D9                  __size_of_printf 0214                __end_of_hexpowers 0812  
                        _dpowers 0800            _OSCILLATOR_Initialize 0271                          _isdigit 02BA  
       ??_PIN_MANAGER_Initialize 0070                          main@dia 0048       __size_of_SYSTEM_Initialize 0009  
                        main@mes 0049             end_of_initialization 07FD                       ??_leer_rtc 0072  
               ??_i2c_envia_dato 0070                _EUSART_Initialize 0297                 ??_i2c_inicia_com 0070  
                     ??_setReloj 0038               ?_EUSART_Initialize 0070                        _RCSTAbits 019D  
                        printf@c 0037                          printf@f 0020                 ?_i2c_recibe_dato 0070  
                   __pstringtext 0800              ??_EUSART_Initialize 0070                        _PORTBbits 000D  
                      _TRISCbits 008E            __size_of_EUSART_Write 0008        __end_of_EUSART_Initialize 02A2  
                   ?_i2c_detener 0070                       main@escape 004B                      printf@width 0035  
                   ?_i2c_iniciar 0070                     ??_i2c_espera 0070                 _i2c_reinicia_com 0267  
                 __end_of___bmul 02D9                   __end_of___wmul 031B                     _EUSART_Write 0286  
         ?_OSCILLATOR_Initialize 0070                   __end_of_printf 07FD              start_initialization 07FD  
__size_of_PIN_MANAGER_Initialize 0027                    ??_EUSART_Read 0070               __end_of_i2c_espera 0286  
                  ??_escribe_rtc 0072                      putch@txData 0071                setReloj@direccion 003A  
                       ??___bmul 0071                         ??___wmul 0074                leer_rtc@direccion 0073  
          __end_of_convertirDato 0338                         ??_printf 0028                        ___latbits 0002  
                  __pcstackBANK0 0020       __size_of_EUSART_Initialize 000B              __end_of_EUSART_Read 02BA  
              __size_of_leer_rtc 001D              __end_of_escribe_rtc 02EC                 ___lwdiv@dividend 0072  
         _PIN_MANAGER_Initialize 0355                __size_of_setReloj 0065                         ?___lwdiv 0070  
                       ?___lwmod 0078                       setReloj@Rx 003E                         ?_isdigit 0070  
                      _hexpowers 080A                 ___lwdiv@quotient 0075                   __size_of_putch 0005  
                 ___wmul@product 0074                         _LATDbits 010F             __size_of_i2c_detener 0005  
                       _PIR1bits 0011             __size_of_i2c_iniciar 000C                     setReloj@dato 003B  
              ___wmul@multiplier 0070                       printf@flag 0034                       printf@prec 0030  
                      main@horas 0047         __end_of_i2c_reinicia_com 026C                      _EUSART_Read 02AE  
                    _escribe_rtc 02D9          ??_OSCILLATOR_Initialize 0070                 __size_of___lwdiv 0034  
               __size_of___lwmod 002C                      _isdigit$596 0070         __size_of_i2c_recibe_dato 0014  
               __size_of_isdigit 000E                  ___lwdiv@divisor 0070                  ___lwdiv@counter 0077  
                       __ptext10 02AE                         __ptext11 0338                         __ptext20 02C8  
                       __ptext12 0267                         __ptext21 028E                         __ptext13 02EC  
                       __ptext22 0355                         __ptext14 0262                         __ptext23 0271  
                       __ptext15 0277                         __ptext24 0297                         __ptext16 025D  
                       __ptext17 027E                         __ptext18 02A2                         __ptext19 031B  
                      setReloj@i 003C                         _leer_rtc 0338                    __size_of_main 01A8  
                       _setReloj 03DC                        printf@idx 002C                         main@dato 004C  
                      printf@len 002E                         main@anio 004A                        printf@val 0032  
        __size_of_i2c_envia_dato 0007          __size_of_i2c_inicia_com 0005         i2c_recibe_dato@datoleido 0071  
                       isdigit@c 0071                  escribe_rtc@dato 0071                 ___lwmod@dividend 007A  
        ?_PIN_MANAGER_Initialize 0070                __CFG_CLKOUTEN$OFF 0000                         printf@ap 0031  
                       printf@cp 002D                  ___lwmod@divisor 0078                  ___lwmod@counter 007D  
                    _SSPCON2bits 0216               EUSART_Write@txData 0070                ??_i2c_recibe_dato 0070  
 __end_of_PIN_MANAGER_Initialize 037C           __size_of_convertirDato 001D  
